Component: ARM Compiler 5.05 update 1 (build 106) Tool: armlink [4d0efa]

==============================================================================

Section Cross References

    main.o(i.main) refers to my_inittask.o(i.My_InitTask) for My_InitTask
    main.o(i.main) refers to printfa.o(i.__0printf) for __2printf
    main.o(i.main) refers to bsp_pwm.o(i.PWM_start_beep) for PWM_start_beep
    main.o(i.main) refers to bsp_systick.o(i.SYSTICK_Delay10ms) for SYSTICK_Delay10ms
    main.o(i.main) refers to bsp_pwm.o(i.PWM_stop_beep) for PWM_stop_beep
    main.o(i.main) refers to protocol.o(i.PTC_struct_init) for PTC_struct_init
    main.o(i.main) refers to cicc_api.o(i.Cicc_PcdInit) for Cicc_PcdInit
    main.o(i.main) refers to lf125k.o(i.LF125K_init) for LF125K_init
    main.o(i.main) refers to protocol.o(i.PTC_get_command) for PTC_get_command
    main.o(i.main) refers to protocol_port.o(i.ptc_process) for ptc_process
    protocol.o(i.PTC_ACK_CMD) refers to crc16.o(i.CRC16_calc) for CRC16_calc
    protocol.o(i.PTC_ACK_CMD) refers to protocol.o(i.PTC_sendbyte) for PTC_sendbyte
    protocol.o(i.PTC_ACK_inquiry) refers to crc16.o(i.CRC16_calc) for CRC16_calc
    protocol.o(i.PTC_ACK_inquiry) refers to protocol.o(i.PTC_sendbyte) for PTC_sendbyte
    protocol.o(i.PTC_ACK_success_cmd) refers to crc16.o(i.CRC16_calc) for CRC16_calc
    protocol.o(i.PTC_ACK_success_cmd) refers to protocol.o(i.PTC_sendbyte) for PTC_sendbyte
    protocol.o(i.PTC_ACK_success_cmd) refers to protocol.o(.bss) for .bss
    protocol.o(i.PTC_ACK_tested) refers to crc16.o(i.CRC16_calc) for CRC16_calc
    protocol.o(i.PTC_ACK_tested) refers to protocol.o(i.PTC_sendbyte) for PTC_sendbyte
    protocol.o(i.PTC_ACK_unrecognized_cmd) refers to crc16.o(i.CRC16_calc) for CRC16_calc
    protocol.o(i.PTC_ACK_unrecognized_cmd) refers to protocol.o(i.PTC_sendbyte) for PTC_sendbyte
    protocol.o(i.PTC_ACK_unrecognized_cmd) refers to protocol.o(.bss) for .bss
    protocol.o(i.PTC_CRC16_disable) refers to protocol.o(.bss) for .bss
    protocol.o(i.PTC_CRC16_enable) refers to protocol.o(.bss) for .bss
    protocol.o(i.PTC_detect_crc16cmd) refers to protocol.o(.bss) for .bss
    protocol.o(i.PTC_get_command) refers to protocol.o(i.PTC_judge_message) for PTC_judge_message
    protocol.o(i.PTC_get_command) refers to protocol.o(.bss) for .bss
    protocol.o(i.PTC_get_data) refers to protocol.o(.bss) for .bss
    protocol.o(i.PTC_judge_message) refers to protocol.o(i.PTC_detect_crc16cmd) for PTC_detect_crc16cmd
    protocol.o(i.PTC_judge_message) refers to crc16.o(i.CRC16_calc) for CRC16_calc
    protocol.o(i.PTC_judge_message) refers to protocol.o(.bss) for .bss
    protocol.o(i.PTC_receive_data) refers to stm32f10x_usart.o(i.USART_SendData) for USART_SendData
    protocol.o(i.PTC_receive_data) refers to bsp_systick.o(i.SYSTICK_get_time) for SYSTICK_get_time
    protocol.o(i.PTC_receive_data) refers to protocol_port.o(.data) for uhf_serial_flag
    protocol.o(i.PTC_receive_data) refers to protocol.o(.bss) for .bss
    protocol.o(i.PTC_refresh_receive) refers to protocol.o(.bss) for .bss
    protocol.o(i.PTC_sendbyte) refers to stm32f10x_usart.o(i.USART_SendData) for USART_SendData
    protocol.o(i.PTC_sendbyte) refers to stm32f10x_usart.o(i.USART_GetFlagStatus) for USART_GetFlagStatus
    protocol.o(i.PTC_sendbyte_n) refers to stm32f10x_usart.o(i.USART_SendData) for USART_SendData
    protocol.o(i.PTC_struct_init) refers to protocol.o(.bss) for .bss
    crc16.o(i.CRC16_calc) refers to crc16.o(.data) for .data
    protocol_port.o(i.ptc_process) refers to protocol.o(i.PTC_ACK_unrecognized_cmd) for PTC_ACK_unrecognized_cmd
    protocol_port.o(i.ptc_process) refers to protocol.o(i.PTC_refresh_receive) for PTC_refresh_receive
    protocol_port.o(i.ptc_process) refers to protocol_port.o(i.ptc_process_cmd_main) for ptc_process_cmd_main
    protocol_port.o(i.ptc_process) refers to protocol_port.o(i.ptc_process_cmd_inquiry) for ptc_process_cmd_inquiry
    protocol_port.o(i.ptc_process) refers to protocol_port.o(i.ptc_process_cmd_set) for ptc_process_cmd_set
    protocol_port.o(i.ptc_process) refers to protocol_port.o(i.ptc_process_cmd_trans) for ptc_process_cmd_trans
    protocol_port.o(i.ptc_process) refers to protocol_port.o(i.ptc_process_cmd_tested) for ptc_process_cmd_tested
    protocol_port.o(i.ptc_process_cmd_inquiry) refers to malloc.o(i.malloc) for malloc
    protocol_port.o(i.ptc_process_cmd_inquiry) refers to rc531_commu.o(i.rc531c_read_cpucard_id) for rc531c_read_cpucard_id
    protocol_port.o(i.ptc_process_cmd_inquiry) refers to lf125k.o(i.LF125K_read_1_page) for LF125K_read_1_page
    protocol_port.o(i.ptc_process_cmd_inquiry) refers to protocol.o(i.PTC_ACK_inquiry) for PTC_ACK_inquiry
    protocol_port.o(i.ptc_process_cmd_inquiry) refers to malloc.o(i.free) for free
    protocol_port.o(i.ptc_process_cmd_inquiry) refers to rc531_commu.o(i.rc531c_read_m1card_id) for rc531c_read_m1card_id
    protocol_port.o(i.ptc_process_cmd_inquiry) refers to rc531_commu.o(i.rc531c_select_m1_rfid) for rc531c_select_m1_rfid
    protocol_port.o(i.ptc_process_cmd_inquiry) refers to rc531_commu.o(i.rc531c_req_m1_rfid) for rc531c_req_m1_rfid
    protocol_port.o(i.ptc_process_cmd_inquiry) refers to rc531_commu.o(i.rc531c_select_cpua_rfid) for rc531c_select_cpua_rfid
    protocol_port.o(i.ptc_process_cmd_inquiry) refers to rc531_commu.o(i.rc531c_req_cpua_rfid) for rc531c_req_cpua_rfid
    protocol_port.o(i.ptc_process_cmd_inquiry) refers to nfc_commu.o(i.nfcc_request_m1card) for nfcc_request_m1card
    protocol_port.o(i.ptc_process_cmd_inquiry) refers to nfc_commu.o(i.nfcc_select_m1card) for nfcc_select_m1card
    protocol_port.o(i.ptc_process_cmd_main) refers to protocol.o(i.PTC_CRC16_enable) for PTC_CRC16_enable
    protocol_port.o(i.ptc_process_cmd_main) refers to protocol.o(i.PTC_ACK_success_cmd) for PTC_ACK_success_cmd
    protocol_port.o(i.ptc_process_cmd_main) refers to protocol.o(i.PTC_CRC16_disable) for PTC_CRC16_disable
    protocol_port.o(i.ptc_process_cmd_set) refers to malloc.o(i.malloc) for malloc
    protocol_port.o(i.ptc_process_cmd_set) refers to rc531_commu.o(i.rc531c_active_m1_rfid) for rc531c_active_m1_rfid
    protocol_port.o(i.ptc_process_cmd_set) refers to rc531_commu.o(i.rc531c_close_rfid) for rc531c_close_rfid
    protocol_port.o(i.ptc_process_cmd_set) refers to rc531_commu.o(i.rc531c_open_rfid) for rc531c_open_rfid
    protocol_port.o(i.ptc_process_cmd_set) refers to lf125k.o(i.LF125K_card_init) for LF125K_card_init
    protocol_port.o(i.ptc_process_cmd_set) refers to protocol.o(i.PTC_get_data) for PTC_get_data
    protocol_port.o(i.ptc_process_cmd_set) refers to lf125k.o(i.LF125K_set_pwd) for LF125K_set_pwd
    protocol_port.o(i.ptc_process_cmd_set) refers to lf125k.o(i.LF125K_clear_pwd) for LF125K_clear_pwd
    protocol_port.o(i.ptc_process_cmd_set) refers to bsp_usart.o(i.UART4_set_IT_RXNE) for UART4_set_IT_RXNE
    protocol_port.o(i.ptc_process_cmd_set) refers to rc531_commu.o(i.rc531c_active_cpua_rfid) for rc531c_active_cpua_rfid
    protocol_port.o(i.ptc_process_cmd_set) refers to rc531_commu.o(i.rc531c_halt_m1_rfid) for rc531c_halt_m1_rfid
    protocol_port.o(i.ptc_process_cmd_set) refers to nfc_commu.o(i.nfcc_open_ant) for nfcc_open_ant
    protocol_port.o(i.ptc_process_cmd_set) refers to nfc_commu.o(i.nfcc_close_ant) for nfcc_close_ant
    protocol_port.o(i.ptc_process_cmd_set) refers to nfc_commu.o(i.nfcc_active_m1card) for nfcc_active_m1card
    protocol_port.o(i.ptc_process_cmd_set) refers to protocol.o(i.PTC_ACK_CMD) for PTC_ACK_CMD
    protocol_port.o(i.ptc_process_cmd_set) refers to malloc.o(i.free) for free
    protocol_port.o(i.ptc_process_cmd_set) refers to protocol_port.o(.data) for .data
    protocol_port.o(i.ptc_process_cmd_tested) refers to malloc.o(i.malloc) for malloc
    protocol_port.o(i.ptc_process_cmd_tested) refers to rc531_commu.o(i.rc531c_coll_tested_rfid) for rc531c_coll_tested_rfid
    protocol_port.o(i.ptc_process_cmd_tested) refers to rc531_commu.o(i.rc531c_move_rfid_card) for rc531c_move_rfid_card
    protocol_port.o(i.ptc_process_cmd_tested) refers to protocol.o(i.PTC_get_data) for PTC_get_data
    protocol_port.o(i.ptc_process_cmd_tested) refers to rc531_commu.o(i.rc531c_m1pwd_rfid) for rc531c_m1pwd_rfid
    protocol_port.o(i.ptc_process_cmd_tested) refers to rc531_commu.o(i.rc531c_coll_m1_rfid) for rc531c_coll_m1_rfid
    protocol_port.o(i.ptc_process_cmd_tested) refers to rc531_commu.o(i.rc531c_coll_cpua_rfid) for rc531c_coll_cpua_rfid
    protocol_port.o(i.ptc_process_cmd_tested) refers to rc531_commu.o(i.rc531c_coll_cpuB_rfid) for rc531c_coll_cpuB_rfid
    protocol_port.o(i.ptc_process_cmd_tested) refers to nfc_commu.o(i.nfcc_pwdauth) for nfcc_pwdauth
    protocol_port.o(i.ptc_process_cmd_tested) refers to nfc_commu.o(i.nfcc_coll_m1card) for nfcc_coll_m1card
    protocol_port.o(i.ptc_process_cmd_tested) refers to protocol.o(i.PTC_ACK_CMD) for PTC_ACK_CMD
    protocol_port.o(i.ptc_process_cmd_tested) refers to malloc.o(i.free) for free
    protocol_port.o(i.ptc_process_cmd_trans) refers to malloc.o(i.malloc) for malloc
    protocol_port.o(i.ptc_process_cmd_trans) refers to protocol.o(i.PTC_get_data) for PTC_get_data
    protocol_port.o(i.ptc_process_cmd_trans) refers to rc531_commu.o(i.rc531c_apdu_rfid) for rc531c_apdu_rfid
    protocol_port.o(i.ptc_process_cmd_trans) refers to rc531_commu.o(i.rc531c_m1read_rfid) for rc531c_m1read_rfid
    protocol_port.o(i.ptc_process_cmd_trans) refers to rc531_commu.o(i.rc531c_m1write_rfid) for rc531c_m1write_rfid
    protocol_port.o(i.ptc_process_cmd_trans) refers to lf125k.o(i.LF125K_read_0_page) for LF125K_read_0_page
    protocol_port.o(i.ptc_process_cmd_trans) refers to lf125k.o(i.LF125K_write_0_page) for LF125K_write_0_page
    protocol_port.o(i.ptc_process_cmd_trans) refers to lf125k.o(i.LF125K_read_0_page_protect) for LF125K_read_0_page_protect
    protocol_port.o(i.ptc_process_cmd_trans) refers to lf125k.o(i.LF125K_write_0_page_protect) for LF125K_write_0_page_protect
    protocol_port.o(i.ptc_process_cmd_trans) refers to rfid_firmware.o(i.Download_FW) for Download_FW
    protocol_port.o(i.ptc_process_cmd_trans) refers to nfc_commu.o(i.nfcc_read_sector) for nfcc_read_sector
    protocol_port.o(i.ptc_process_cmd_trans) refers to protocol.o(i.PTC_ACK_CMD) for PTC_ACK_CMD
    protocol_port.o(i.ptc_process_cmd_trans) refers to malloc.o(i.free) for free
    protocol_port.o(i.ptc_process_cmd_trans) refers to nfc_commu.o(i.nfcc_write_sector) for nfcc_write_sector
    rc531_commu.o(i.rc531c_active_cpua_rfid) refers to rc531_commu.o(i.rc531c_req_cpua_rfid) for rc531c_req_cpua_rfid
    rc531_commu.o(i.rc531c_active_cpua_rfid) refers to rc531_commu.o(i.rc531c_coll_cpua_rfid) for rc531c_coll_cpua_rfid
    rc531_commu.o(i.rc531c_active_cpua_rfid) refers to rc531_commu.o(i.rc531c_select_cpua_rfid) for rc531c_select_cpua_rfid
    rc531_commu.o(i.rc531c_active_m1_rfid) refers to rc531_commu.o(i.rc531c_req_m1_rfid) for rc531c_req_m1_rfid
    rc531_commu.o(i.rc531c_active_m1_rfid) refers to rc531_commu.o(i.rc531c_coll_m1_rfid) for rc531c_coll_m1_rfid
    rc531_commu.o(i.rc531c_active_m1_rfid) refers to rc531_commu.o(i.rc531c_select_m1_rfid) for rc531c_select_m1_rfid
    rc531_commu.o(i.rc531c_apdu_rfid) refers to cicc_api.o(i.Cicc_ApduExchange) for Cicc_ApduExchange
    rc531_commu.o(i.rc531c_close_rfid) refers to cicc_api.o(i.Cicc_PcdInit) for Cicc_PcdInit
    rc531_commu.o(i.rc531c_close_rfid) refers to cicc_api.o(i.Cicc_PiccDeslect) for Cicc_PiccDeslect
    rc531_commu.o(i.rc531c_coll_cpuA_rfid) refers to cicc_func.o(i.TYPE_A_PiccRequest) for TYPE_A_PiccRequest
    rc531_commu.o(i.rc531c_coll_cpuA_rfid) refers to cicc_func.o(i.TYPE_A_AntiMain) for TYPE_A_AntiMain
    rc531_commu.o(i.rc531c_coll_cpuB_rfid) refers to cicc_func.o(i.TYPE_B_Init) for TYPE_B_Init
    rc531_commu.o(i.rc531c_coll_cpuB_rfid) refers to cicc_func.o(i._msdelay) for _msdelay
    rc531_commu.o(i.rc531c_coll_cpuB_rfid) refers to cicc_func.o(i.TYPE_B_PiccRequest) for TYPE_B_PiccRequest
    rc531_commu.o(i.rc531c_coll_cpuB_rfid) refers to printfa.o(i.__0printf) for __2printf
    rc531_commu.o(i.rc531c_coll_cpuB_rfid) refers to cicc_func.o(i.TYPE_B_Attrib) for TYPE_B_Attrib
    rc531_commu.o(i.rc531c_coll_cpuB_rfid) refers to cicc_api.o(i.Cicc_PiccDeslect) for Cicc_PiccDeslect
    rc531_commu.o(i.rc531c_coll_cpua_rfid) refers to cicc_func.o(i.TYPE_A_AntiMain) for TYPE_A_AntiMain
    rc531_commu.o(i.rc531c_coll_cpua_rfid) refers to cicc_api.o(.data) for Cid
    rc531_commu.o(i.rc531c_coll_m1_rfid) refers to cicc_func.o(i.TYPE_A_PiccAnticoll) for TYPE_A_PiccAnticoll
    rc531_commu.o(i.rc531c_coll_m1_rfid) refers to cicc_api.o(.data) for Cid
    rc531_commu.o(i.rc531c_coll_m1card_rfid) refers to cicc_func.o(i.TYPE_A_PiccAnticoll) for TYPE_A_PiccAnticoll
    rc531_commu.o(i.rc531c_coll_tested_rfid) refers to rc531_commu.o(i.rc531c_coll_m1card_rfid) for rc531c_coll_m1card_rfid
    rc531_commu.o(i.rc531c_coll_tested_rfid) refers to cicc_func.o(i.TYPE_A_AntiMain) for TYPE_A_AntiMain
    rc531_commu.o(i.rc531c_coll_tested_rfid) refers to cicc_func.o(i.TYPE_B_Attrib) for TYPE_B_Attrib
    rc531_commu.o(i.rc531c_coll_tested_rfid) refers to cicc_func.o(i.TYPE_B_Init) for TYPE_B_Init
    rc531_commu.o(i.rc531c_coll_tested_rfid) refers to cicc_api.o(i.Cicc_PiccDeslect) for Cicc_PiccDeslect
    rc531_commu.o(i.rc531c_coll_tested_rfid) refers to cicc_func.o(i._msdelay) for _msdelay
    rc531_commu.o(i.rc531c_find_rfid_card) refers to cicc_api.o(i.Cicc_PcdInit) for Cicc_PcdInit
    rc531_commu.o(i.rc531c_find_rfid_card) refers to cicc_api.o(i.Cicc_PiccDeslect) for Cicc_PiccDeslect
    rc531_commu.o(i.rc531c_find_rfid_card) refers to cicc_api.o(i.Cicc_Active) for Cicc_Active
    rc531_commu.o(i.rc531c_find_rfid_card) refers to cicc_api.o(i.m1_ReqAntiSele) for m1_ReqAntiSele
    rc531_commu.o(i.rc531c_find_rfid_card) refers to cicc_api.o(.data) for Req_t
    rc531_commu.o(i.rc531c_halt_m1_rfid) refers to cicc_api.o(i.cicc_m1_halt) for cicc_m1_halt
    rc531_commu.o(i.rc531c_halt_m1_rfid) refers to cicc_api.o(.data) for Rfid_type
    rc531_commu.o(i.rc531c_halt_m1_rfid) refers to cicc_api.o(.data) for Rfid_card
    rc531_commu.o(i.rc531c_halt_m1_rfid) refers to cicc_api.o(.data) for M1_sta
    rc531_commu.o(i.rc531c_halt_rfid_card) refers to rc531_commu.o(i.rc531c_find_rfid_card) for rc531c_find_rfid_card
    rc531_commu.o(i.rc531c_halt_rfid_card) refers to cicc_api.o(i.cicc_m1_halt) for cicc_m1_halt
    rc531_commu.o(i.rc531c_m1pwd_rfid) refers to cicc_api.o(i.cicc_m1_PiccAuth_key) for cicc_m1_PiccAuth_key
    rc531_commu.o(i.rc531c_m1pwd_rfid) refers to cicc_api.o(.data) for Cid
    rc531_commu.o(i.rc531c_m1read_rfid) refers to cicc_api.o(i.cicc_m1_PiccBlockRead) for cicc_m1_PiccBlockRead
    rc531_commu.o(i.rc531c_m1write_rfid) refers to cicc_api.o(i.cicc_m1_PiccBlockWrite) for cicc_m1_PiccBlockWrite
    rc531_commu.o(i.rc531c_move_rfid_card) refers to cicc_api.o(i.Cicc_WaitPiccRemove) for Cicc_WaitPiccRemove
    rc531_commu.o(i.rc531c_open_rfid) refers to cicc_api.o(i.Cicc_PiccDeslect) for Cicc_PiccDeslect
    rc531_commu.o(i.rc531c_read_cpucard_id) refers to rc531_commu.o(i.rc531c_find_rfid_card) for rc531c_find_rfid_card
    rc531_commu.o(i.rc531c_read_m1card_id) refers to rc531_commu.o(i.rc531c_find_rfid_card) for rc531c_find_rfid_card
    rc531_commu.o(i.rc531c_req_cpua_rfid) refers to cicc_func.o(i.TYPE_A_Init) for TYPE_A_Init
    rc531_commu.o(i.rc531c_req_cpua_rfid) refers to cicc_func.o(i._msdelay) for _msdelay
    rc531_commu.o(i.rc531c_req_cpua_rfid) refers to cicc_func.o(i.TYPE_A_PiccRequest) for TYPE_A_PiccRequest
    rc531_commu.o(i.rc531c_req_cpua_rfid) refers to cicc_api.o(.data) for Rfid_card
    rc531_commu.o(i.rc531c_req_cpua_rfid) refers to cicc_api.o(.data) for Rfid_type
    rc531_commu.o(i.rc531c_req_cpua_rfid) refers to cicc_api.o(.data) for Cid
    rc531_commu.o(i.rc531c_req_cpua_rfid) refers to cicc_api.o(.data) for Req_t
    rc531_commu.o(i.rc531c_req_cpua_rfid) refers to cicc_api.o(.data) for M1_sta
    rc531_commu.o(i.rc531c_req_cpua_rfid) refers to cicc_api.o(.data) for Atq1
    rc531_commu.o(i.rc531c_req_cpua_rfid) refers to cicc_api.o(.data) for Atq2
    rc531_commu.o(i.rc531c_req_m1_rfid) refers to cicc_func.o(i.TYPE_A_Init) for TYPE_A_Init
    rc531_commu.o(i.rc531c_req_m1_rfid) refers to cicc_func.o(i._msdelay) for _msdelay
    rc531_commu.o(i.rc531c_req_m1_rfid) refers to cicc_func.o(i.TYPE_A_PiccRequest) for TYPE_A_PiccRequest
    rc531_commu.o(i.rc531c_req_m1_rfid) refers to cicc_api.o(.data) for Rfid_card
    rc531_commu.o(i.rc531c_req_m1_rfid) refers to cicc_api.o(.data) for Rfid_type
    rc531_commu.o(i.rc531c_req_m1_rfid) refers to cicc_api.o(.data) for Cid
    rc531_commu.o(i.rc531c_req_m1_rfid) refers to cicc_api.o(.data) for Req_t
    rc531_commu.o(i.rc531c_req_m1_rfid) refers to cicc_api.o(.data) for M1_sta
    rc531_commu.o(i.rc531c_req_m1_rfid) refers to cicc_api.o(.data) for Atq1
    rc531_commu.o(i.rc531c_req_m1_rfid) refers to cicc_api.o(.data) for Atq2
    rc531_commu.o(i.rc531c_select_cpua_rfid) refers to cicc_iso14443.o(i.isoRatsA) for isoRatsA
    rc531_commu.o(i.rc531c_select_cpua_rfid) refers to cicc_api.o(.data) for Req_t
    rc531_commu.o(i.rc531c_select_cpua_rfid) refers to cicc_api.o(.data) for Cid
    rc531_commu.o(i.rc531c_select_cpua_rfid) refers to cicc_public.o(.data) for ctlcfg
    rc531_commu.o(i.rc531c_select_m1_rfid) refers to cicc_func.o(i.TYPE_A_PiccSelect) for TYPE_A_PiccSelect
    rc531_commu.o(i.rc531c_select_m1_rfid) refers to cicc_api.o(.data) for Cid
    rc531_commu.o(i.rc531c_select_m1_rfid) refers to cicc_public.o(.data) for ctlcfg
    rc531_commu.o(i.rc531c_select_m1_rfid) refers to cicc_api.o(.data) for M1_sta
    rc531_commu.o(i.rc531c_select_m1_rfid) refers to cicc_api.o(.data) for Rfid_type
    rc531_commu.o(i.rc531c_select_m1_rfid) refers to cicc_api.o(.data) for Rfid_card
    nfc_commu.o(i.nfcc_active_m1card) refers to nfc_commu.o(i.nfcc_request_m1card) for nfcc_request_m1card
    nfc_commu.o(i.nfcc_active_m1card) refers to nfc_commu.o(i.nfcc_coll_m1card) for nfcc_coll_m1card
    nfc_commu.o(i.nfcc_active_m1card) refers to nfc_commu.o(i.nfcc_select_m1card) for nfcc_select_m1card
    nfc_commu.o(i.nfcc_close_ant) refers to pn512.o(i.PcdAntennaOff) for PcdAntennaOff
    nfc_commu.o(i.nfcc_coll_m1card) refers to pn512.o(i.PcdAnticoll) for PcdAnticoll
    nfc_commu.o(i.nfcc_coll_m1card) refers to nfc_commu.o(.bss) for .bss
    nfc_commu.o(i.nfcc_coll_m1card) refers to nfc_commu.o(.data) for .data
    nfc_commu.o(i.nfcc_open_ant) refers to pn512.o(i.PcdAntennaOn) for PcdAntennaOn
    nfc_commu.o(i.nfcc_pwdauth) refers to pn512.o(i.PcdAuthState) for PcdAuthState
    nfc_commu.o(i.nfcc_pwdauth) refers to nfc_commu.o(.data) for .data
    nfc_commu.o(i.nfcc_pwdauth) refers to nfc_commu.o(.bss) for .bss
    nfc_commu.o(i.nfcc_read_sector) refers to pn512.o(i.PcdRead) for PcdRead
    nfc_commu.o(i.nfcc_request_m1card) refers to pn512.o(i.PN512_Init) for PN512_Init
    nfc_commu.o(i.nfcc_request_m1card) refers to pn512.o(i.PcdAntennaOn) for PcdAntennaOn
    nfc_commu.o(i.nfcc_request_m1card) refers to pn512.o(i.PN512PcdConfigISOType) for PN512PcdConfigISOType
    nfc_commu.o(i.nfcc_request_m1card) refers to pn512.o(i.PcdRequest) for PcdRequest
    nfc_commu.o(i.nfcc_select_m1card) refers to pn512.o(i.PcdSelect) for PcdSelect
    nfc_commu.o(i.nfcc_select_m1card) refers to nfc_commu.o(.data) for .data
    nfc_commu.o(i.nfcc_select_m1card) refers to nfc_commu.o(.bss) for .bss
    nfc_commu.o(i.nfcc_write_sector) refers to pn512.o(i.PcdWrite) for PcdWrite
    lf125k.o(i.Card_initialization) refers to lf125k.o(i.write_od) for write_od
    lf125k.o(i.Card_initialization) refers to lf125k.o(i.write_lock) for write_lock
    lf125k.o(i.Card_initialization) refers to lf125k.o(i.write_data) for write_data
    lf125k.o(i.Card_initialization) refers to lf125k.o(i.write_add) for write_add
    lf125k.o(i.Card_initialization) refers to bsp_systick.o(i.SYSTICK_Delay10ms) for SYSTICK_Delay10ms
    lf125k.o(i.Card_initialization) refers to lf125k.o(i.REM_Processing) for REM_Processing
    lf125k.o(i.Card_initialization) refers to lf125k.o(i.LF125K_read_1_page) for LF125K_read_1_page
    lf125k.o(i.Card_initialization) refers to lf125k.o(.data) for .data
    lf125k.o(i.Data_Processing) refers to bsp_systick.o(i.SYSTICK_ClearSystickVal) for SYSTICK_ClearSystickVal
    lf125k.o(i.Data_Processing) refers to bsp_systick.o(i.SYSTICK_GetVal) for SYSTICK_GetVal
    lf125k.o(i.Data_Processing) refers to bsp_gpio.o(i.GPIO_set_lf125k_clk) for GPIO_set_lf125k_clk
    lf125k.o(i.Data_Processing) refers to lf125k.o(.data) for .data
    lf125k.o(i.LF125K_card_init) refers to lf125k.o(i.write_od) for write_od
    lf125k.o(i.LF125K_card_init) refers to lf125k.o(i.write_lock) for write_lock
    lf125k.o(i.LF125K_card_init) refers to lf125k.o(i.write_data) for write_data
    lf125k.o(i.LF125K_card_init) refers to lf125k.o(i.write_add) for write_add
    lf125k.o(i.LF125K_card_init) refers to bsp_systick.o(i.SYSTICK_Delay10ms) for SYSTICK_Delay10ms
    lf125k.o(i.LF125K_card_init) refers to lf125k.o(i.REM_Processing) for REM_Processing
    lf125k.o(i.LF125K_card_init) refers to lf125k.o(i.LF125K_read_1_page) for LF125K_read_1_page
    lf125k.o(i.LF125K_card_init) refers to lf125k.o(.data) for .data
    lf125k.o(i.LF125K_card_init1) refers to lf125k.o(i.write_od) for write_od
    lf125k.o(i.LF125K_card_init1) refers to lf125k.o(i.write_lock) for write_lock
    lf125k.o(i.LF125K_card_init1) refers to lf125k.o(i.write_data) for write_data
    lf125k.o(i.LF125K_card_init1) refers to lf125k.o(i.write_add) for write_add
    lf125k.o(i.LF125K_card_init1) refers to lf125k.o(.data) for .data
    lf125k.o(i.LF125K_clear_pwd) refers to lf125k.o(i.write_od) for write_od
    lf125k.o(i.LF125K_clear_pwd) refers to lf125k.o(i.write_data) for write_data
    lf125k.o(i.LF125K_clear_pwd) refers to lf125k.o(i.write_lock) for write_lock
    lf125k.o(i.LF125K_clear_pwd) refers to lf125k.o(i.write_add) for write_add
    lf125k.o(i.LF125K_clear_pwd) refers to bsp_systick.o(i.SYSTICK_Delay10ms) for SYSTICK_Delay10ms
    lf125k.o(i.LF125K_clear_pwd) refers to lf125k.o(i.REM_Processing) for REM_Processing
    lf125k.o(i.LF125K_clear_pwd) refers to lf125k.o(.data) for .data
    lf125k.o(i.LF125K_close_RF) refers to bsp_gpio.o(i.GPIO_set_lf125k_clk) for GPIO_set_lf125k_clk
    lf125k.o(i.LF125K_get_cardid) refers to lf125k.o(i.LF125K_read_1_page) for LF125K_read_1_page
    lf125k.o(i.LF125K_init) refers to bsp_gpio.o(i.GPIO_set_lf125k_clk) for GPIO_set_lf125k_clk
    lf125k.o(i.LF125K_open_RF) refers to bsp_gpio.o(i.GPIO_set_lf125k_clk) for GPIO_set_lf125k_clk
    lf125k.o(i.LF125K_read_0_page) refers to lf125k.o(i.write_od) for write_od
    lf125k.o(i.LF125K_read_0_page) refers to lf125k.o(i.write_lock) for write_lock
    lf125k.o(i.LF125K_read_0_page) refers to lf125k.o(i.write_add) for write_add
    lf125k.o(i.LF125K_read_0_page) refers to bsp_systick.o(i.SYSTICK_Delay10ms) for SYSTICK_Delay10ms
    lf125k.o(i.LF125K_read_0_page) refers to lf125k.o(i.REM_Processing) for REM_Processing
    lf125k.o(i.LF125K_read_0_page) refers to memcmp.o(.text) for memcmp
    lf125k.o(i.LF125K_read_0_page_protect) refers to lf125k.o(i.write_od) for write_od
    lf125k.o(i.LF125K_read_0_page_protect) refers to lf125k.o(i.write_data) for write_data
    lf125k.o(i.LF125K_read_0_page_protect) refers to lf125k.o(i.write_lock) for write_lock
    lf125k.o(i.LF125K_read_0_page_protect) refers to lf125k.o(i.write_add) for write_add
    lf125k.o(i.LF125K_read_0_page_protect) refers to bsp_systick.o(i.SYSTICK_Delay10ms) for SYSTICK_Delay10ms
    lf125k.o(i.LF125K_read_0_page_protect) refers to lf125k.o(i.REM_Processing) for REM_Processing
    lf125k.o(i.LF125K_read_0_page_protect) refers to lf125k.o(.data) for .data
    lf125k.o(i.LF125K_read_1_page) refers to lf125k.o(i.write_od) for write_od
    lf125k.o(i.LF125K_read_1_page) refers to bsp_systick.o(i.SYSTICK_Delay10ms) for SYSTICK_Delay10ms
    lf125k.o(i.LF125K_read_1_page) refers to lf125k.o(i.REM_Processing) for REM_Processing
    lf125k.o(i.LF125K_read_1_page) refers to memcmp.o(.text) for memcmp
    lf125k.o(i.LF125K_set_password) refers to lf125k.o(i.write_od) for write_od
    lf125k.o(i.LF125K_set_password) refers to lf125k.o(i.write_lock) for write_lock
    lf125k.o(i.LF125K_set_password) refers to lf125k.o(i.write_data) for write_data
    lf125k.o(i.LF125K_set_password) refers to lf125k.o(i.write_add) for write_add
    lf125k.o(i.LF125K_set_password) refers to lf125k.o(.data) for .data
    lf125k.o(i.LF125K_set_pwd) refers to lf125k.o(i.LF125K_write_0_page) for LF125K_write_0_page
    lf125k.o(i.LF125K_set_pwd) refers to lf125k.o(i.write_od) for write_od
    lf125k.o(i.LF125K_set_pwd) refers to lf125k.o(i.write_lock) for write_lock
    lf125k.o(i.LF125K_set_pwd) refers to lf125k.o(i.write_data) for write_data
    lf125k.o(i.LF125K_set_pwd) refers to lf125k.o(i.write_add) for write_add
    lf125k.o(i.LF125K_set_pwd) refers to lf125k.o(.data) for .data
    lf125k.o(i.LF125K_write_0_page) refers to lf125k.o(i.write_od) for write_od
    lf125k.o(i.LF125K_write_0_page) refers to lf125k.o(i.write_lock) for write_lock
    lf125k.o(i.LF125K_write_0_page) refers to lf125k.o(i.write_data) for write_data
    lf125k.o(i.LF125K_write_0_page) refers to lf125k.o(i.write_add) for write_add
    lf125k.o(i.LF125K_write_0_page) refers to bsp_systick.o(i.SYSTICK_Delay10ms) for SYSTICK_Delay10ms
    lf125k.o(i.LF125K_write_0_page) refers to lf125k.o(i.REM_Processing) for REM_Processing
    lf125k.o(i.LF125K_write_0_page) refers to memcmp.o(.text) for memcmp
    lf125k.o(i.LF125K_write_0_page) refers to lf125k.o(.data) for .data
    lf125k.o(i.LF125K_write_0_page_protect) refers to lf125k.o(i.write_od) for write_od
    lf125k.o(i.LF125K_write_0_page_protect) refers to lf125k.o(i.write_data) for write_data
    lf125k.o(i.LF125K_write_0_page_protect) refers to lf125k.o(i.write_lock) for write_lock
    lf125k.o(i.LF125K_write_0_page_protect) refers to lf125k.o(i.write_add) for write_add
    lf125k.o(i.LF125K_write_0_page_protect) refers to bsp_systick.o(i.SYSTICK_Delay10ms) for SYSTICK_Delay10ms
    lf125k.o(i.LF125K_write_0_page_protect) refers to lf125k.o(i.REM_Processing) for REM_Processing
    lf125k.o(i.LF125K_write_0_page_protect) refers to lf125k.o(.data) for .data
    lf125k.o(i.REM_Processing) refers to bsp_gpio.o(i.GPIO_read_lf125k_data) for GPIO_read_lf125k_data
    lf125k.o(i.REM_Processing) refers to bsp_systick.o(i.SYSTICK_ClearSystickVal) for SYSTICK_ClearSystickVal
    lf125k.o(i.REM_Processing) refers to bsp_systick.o(i.SYSTICK_GetVal) for SYSTICK_GetVal
    lf125k.o(i.REM_Processing) refers to lf125k.o(.data) for .data
    lf125k.o(i.write_add) refers to lf125k.o(i.Data_Processing) for Data_Processing
    lf125k.o(i.write_add) refers to lf125k.o(.data) for .data
    lf125k.o(i.write_data) refers to lf125k.o(i.Data_Processing) for Data_Processing
    lf125k.o(i.write_data) refers to lf125k.o(.data) for .data
    lf125k.o(i.write_lock) refers to lf125k.o(i.Data_Processing) for Data_Processing
    lf125k.o(i.write_lock) refers to lf125k.o(.data) for .data
    lf125k.o(i.write_od) refers to bsp_systick.o(i.SYSTICK_ClearSystickVal) for SYSTICK_ClearSystickVal
    lf125k.o(i.write_od) refers to bsp_systick.o(i.SYSTICK_GetVal) for SYSTICK_GetVal
    lf125k.o(i.write_od) refers to bsp_gpio.o(i.GPIO_set_lf125k_clk) for GPIO_set_lf125k_clk
    lf125k.o(i.write_od) refers to lf125k.o(i.Data_Processing) for Data_Processing
    lf125k.o(i.write_od) refers to lf125k.o(.data) for .data
    cicc_api.o(i.Cicc_Active) refers to bsp_systick.o(i.SYSTICK_get_time) for SYSTICK_get_time
    cicc_api.o(i.Cicc_Active) refers to cicc_api.o(i.Cicc_PiccDeslect) for Cicc_PiccDeslect
    cicc_api.o(i.Cicc_Active) refers to cicc_api.o(i.Cicc_PiccSeekActive) for Cicc_PiccSeekActive
    cicc_api.o(i.Cicc_ApduExchange) refers to cicc_iso14443.o(i.isoBlockExchange) for isoBlockExchange
    cicc_api.o(i.Cicc_ApduExchange) refers to cicc_public.o(.data) for ctlcfg
    cicc_api.o(i.Cicc_PcdInit) refers to cicc_rc531.o(i.rc531_PcdReset) for rc531_PcdReset
    cicc_api.o(i.Cicc_PcdInit) refers to cicc_func.o(i.TYPE_A_Init) for TYPE_A_Init
    cicc_api.o(i.Cicc_PiccDeslect) refers to cicc_rc531.o(i.rc531_PcdRfReset) for rc531_PcdRfReset
    cicc_api.o(i.Cicc_PiccSeekActive) refers to cicc_func.o(i.TYPE_AB_CardActive) for TYPE_AB_CardActive
    cicc_api.o(i.Cicc_PiccSeekActive) refers to memcpya.o(.text) for __aeabi_memcpy
    cicc_api.o(i.Cicc_PiccSeekActive) refers to cicc_public.o(.data) for ctlcfg
    cicc_api.o(i.Cicc_PiccSeekActive) refers to cicc_public.o(.data) for not_ios14443_4
    cicc_api.o(i.Cicc_WaitPiccRemove) refers to cicc_func.o(i.TYPE_B_Removal) for TYPE_B_Removal
    cicc_api.o(i.Cicc_WaitPiccRemove) refers to cicc_func.o(i.TYPE_A_Removal) for TYPE_A_Removal
    cicc_api.o(i.cicc_m1_PiccAuthE2) refers to cicc_mifare1.o(i.M1_PiccAuthState) for M1_PiccAuthState
    cicc_api.o(i.cicc_m1_PiccAuth_key) refers to cicc_mifare1.o(i.M1_PiccAuth_key) for M1_PiccAuth_key
    cicc_api.o(i.cicc_m1_PiccBlockRead) refers to cicc_mifare1.o(i.M1_PiccBlockRead) for M1_PiccBlockRead
    cicc_api.o(i.cicc_m1_PiccBlockWrite) refers to cicc_mifare1.o(i.M1_PiccBlockWrite) for M1_PiccBlockWrite
    cicc_api.o(i.cicc_m1_PiccDecrement) refers to cicc_mifare1.o(i.M1_PiccDecrement) for M1_PiccDecrement
    cicc_api.o(i.cicc_m1_PiccIncrease) refers to cicc_mifare1.o(i.M1_PiccIncrease) for M1_PiccIncrease
    cicc_api.o(i.cicc_m1_PiccRestore) refers to cicc_mifare1.o(i.M1_PiccRestore) for M1_PiccRestore
    cicc_api.o(i.cicc_m1_PiccTransfer) refers to cicc_mifare1.o(i.M1_PiccTransfer) for M1_PiccTransfer
    cicc_api.o(i.cicc_m1_ReqAntiSele) refers to cicc_func.o(i.TYPE_A_PiccRequest) for TYPE_A_PiccRequest
    cicc_api.o(i.cicc_m1_ReqAntiSele) refers to cicc_func.o(i.TYPE_A_PiccAnticoll) for TYPE_A_PiccAnticoll
    cicc_api.o(i.cicc_m1_ReqAntiSele) refers to cicc_func.o(i.TYPE_A_PiccSelect) for TYPE_A_PiccSelect
    cicc_api.o(i.cicc_m1_halt) refers to cicc_func.o(i.TYPE_A_PiccHalt) for TYPE_A_PiccHalt
    cicc_api.o(i.cicc_m1_loadkey) refers to cicc_mifare1.o(i.M1_PcdLoadKeyE2) for M1_PcdLoadKeyE2
    cicc_api.o(i.cicc_m1_storekey) refers to cicc_mifare1.o(i.M1_PcdStoreKeyE2) for M1_PcdStoreKeyE2
    cicc_api.o(i.m1_ReqAntiSele) refers to bsp_systick.o(i.SYSTICK_get_time) for SYSTICK_get_time
    cicc_api.o(i.m1_ReqAntiSele) refers to cicc_func.o(i.TYPE_A_Init) for TYPE_A_Init
    cicc_api.o(i.m1_ReqAntiSele) refers to cicc_api.o(i.cicc_m1_ReqAntiSele) for cicc_m1_ReqAntiSele
    cicc_api.o(i.m1_ReqAntiSele) refers to cicc_api.o(.data) for .data
    cicc_func.o(i.TYPE_AB_CardActive) refers to cicc_func.o(i.TYPE_A_Init) for TYPE_A_Init
    cicc_func.o(i.TYPE_AB_CardActive) refers to cicc_func.o(i._msdelay) for _msdelay
    cicc_func.o(i.TYPE_AB_CardActive) refers to cicc_func.o(i.TYPE_A_PiccRequest) for TYPE_A_PiccRequest
    cicc_func.o(i.TYPE_AB_CardActive) refers to cicc_func.o(i.TYPE_A_PiccHalt) for TYPE_A_PiccHalt
    cicc_func.o(i.TYPE_AB_CardActive) refers to cicc_func.o(i.TYPE_B_Init) for TYPE_B_Init
    cicc_func.o(i.TYPE_AB_CardActive) refers to cicc_func.o(i.TYPE_B_PiccRequest) for TYPE_B_PiccRequest
    cicc_func.o(i.TYPE_AB_CardActive) refers to cicc_func.o(i.TYPE_B_Attrib) for TYPE_B_Attrib
    cicc_func.o(i.TYPE_AB_CardActive) refers to cicc_func.o(i.TYPE_B_PiccHalt) for TYPE_B_PiccHalt
    cicc_func.o(i.TYPE_AB_CardActive) refers to cicc_rc531.o(i.rc531_PcdRfReset) for rc531_PcdRfReset
    cicc_func.o(i.TYPE_AB_CardActive) refers to cicc_func.o(i.TYPE_A_AntiMain) for TYPE_A_AntiMain
    cicc_func.o(i.TYPE_AB_CardActive) refers to cicc_iso14443.o(i.isoRatsA) for isoRatsA
    cicc_func.o(i.TYPE_AB_CardActive) refers to cicc_public.o(.data) for ctlcfg
    cicc_func.o(i.TYPE_AB_CardActive) refers to cicc_func.o(.data) for .data
    cicc_func.o(i.TYPE_A_AntiMain) refers to cicc_func.o(i.TYPE_A_PiccAnticoll) for TYPE_A_PiccAnticoll
    cicc_func.o(i.TYPE_A_AntiMain) refers to cicc_func.o(i.TYPE_A_PiccSelect) for TYPE_A_PiccSelect
    cicc_func.o(i.TYPE_A_AntiMain) refers to memcpya.o(.text) for __aeabi_memcpy
    cicc_func.o(i.TYPE_A_AntiMain) refers to cicc_public.o(.data) for ctlcfg
    cicc_func.o(i.TYPE_A_AntiMain) refers to cicc_public.o(.data) for not_ios14443_4
    cicc_func.o(i.TYPE_A_Init) refers to cicc_rc531.o(i.rc531_PcdConfig_A) for rc531_PcdConfig_A
    cicc_func.o(i.TYPE_A_Init) refers to cicc_public.o(.data) for ctlcfg
    cicc_func.o(i.TYPE_A_Init) refers to cicc_func.o(.data) for .data
    cicc_func.o(i.TYPE_A_PiccAnticoll) refers to cicc_rc531.o(i.rc531_Write) for rc531_Write
    cicc_func.o(i.TYPE_A_PiccAnticoll) refers to cicc_rc531.o(i.rc531_ClrBitMask) for rc531_ClrBitMask
    cicc_func.o(i.TYPE_A_PiccAnticoll) refers to cicc_public.o(i.ResetInfo) for ResetInfo
    cicc_func.o(i.TYPE_A_PiccAnticoll) refers to cicc_rc531.o(i.rc531_PcdCmd) for rc531_PcdCmd
    cicc_func.o(i.TYPE_A_PiccAnticoll) refers to cicc_public.o(.data) for ctlcfg
    cicc_func.o(i.TYPE_A_PiccAnticoll) refers to cicc_public.o(.bss) for MInfo
    cicc_func.o(i.TYPE_A_PiccAnticoll) refers to cicc_func.o(.bss) for .bss
    cicc_func.o(i.TYPE_A_PiccHalt) refers to cicc_rc531.o(i.rc531_Write) for rc531_Write
    cicc_func.o(i.TYPE_A_PiccHalt) refers to cicc_rc531.o(i.rc531_PcdSetTmo) for rc531_PcdSetTmo
    cicc_func.o(i.TYPE_A_PiccHalt) refers to cicc_public.o(i.ResetInfo) for ResetInfo
    cicc_func.o(i.TYPE_A_PiccHalt) refers to cicc_rc531.o(i.rc531_PcdCmd) for rc531_PcdCmd
    cicc_func.o(i.TYPE_A_PiccHalt) refers to cicc_public.o(.bss) for MInfo
    cicc_func.o(i.TYPE_A_PiccHalt) refers to cicc_func.o(.bss) for .bss
    cicc_func.o(i.TYPE_A_PiccHalt) refers to cicc_func.o(.data) for .data
    cicc_func.o(i.TYPE_A_PiccRequest) refers to cicc_rc531.o(i.rc531_Write) for rc531_Write
    cicc_func.o(i.TYPE_A_PiccRequest) refers to cicc_rc531.o(i.rc531_ClrBitMask) for rc531_ClrBitMask
    cicc_func.o(i.TYPE_A_PiccRequest) refers to cicc_rc531.o(i.rc531_SetBitMask) for rc531_SetBitMask
    cicc_func.o(i.TYPE_A_PiccRequest) refers to cicc_public.o(i.ResetInfo) for ResetInfo
    cicc_func.o(i.TYPE_A_PiccRequest) refers to cicc_rc531.o(i.rc531_PcdCmd) for rc531_PcdCmd
    cicc_func.o(i.TYPE_A_PiccRequest) refers to cicc_public.o(.data) for ctlcfg
    cicc_func.o(i.TYPE_A_PiccRequest) refers to cicc_public.o(.bss) for MInfo
    cicc_func.o(i.TYPE_A_PiccRequest) refers to cicc_func.o(.bss) for .bss
    cicc_func.o(i.TYPE_A_PiccSelect) refers to cicc_rc531.o(i.rc531_Write) for rc531_Write
    cicc_func.o(i.TYPE_A_PiccSelect) refers to cicc_rc531.o(i.rc531_ClrBitMask) for rc531_ClrBitMask
    cicc_func.o(i.TYPE_A_PiccSelect) refers to cicc_public.o(i.ResetInfo) for ResetInfo
    cicc_func.o(i.TYPE_A_PiccSelect) refers to cicc_rc531.o(i.rc531_FlushFIFO) for rc531_FlushFIFO
    cicc_func.o(i.TYPE_A_PiccSelect) refers to cicc_rc531.o(i.rc531_PcdCmd) for rc531_PcdCmd
    cicc_func.o(i.TYPE_A_PiccSelect) refers to cicc_public.o(.data) for ctlcfg
    cicc_func.o(i.TYPE_A_PiccSelect) refers to cicc_public.o(.bss) for MInfo
    cicc_func.o(i.TYPE_A_PiccSelect) refers to cicc_func.o(.bss) for .bss
    cicc_func.o(i.TYPE_A_Removal) refers to cicc_func.o(i.TYPE_A_Init) for TYPE_A_Init
    cicc_func.o(i.TYPE_A_Removal) refers to cicc_func.o(i._msdelay) for _msdelay
    cicc_func.o(i.TYPE_A_Removal) refers to cicc_func.o(i.TYPE_A_PiccRequest) for TYPE_A_PiccRequest
    cicc_func.o(i.TYPE_A_Removal) refers to cicc_func.o(i.TYPE_A_PiccHalt) for TYPE_A_PiccHalt
    cicc_func.o(i.TYPE_A_Removal) refers to cicc_rc531.o(i.rc531_PcdRfReset) for rc531_PcdRfReset
    cicc_func.o(i.TYPE_B_Attrib) refers to cicc_rc531.o(i.rc531_Write) for rc531_Write
    cicc_func.o(i.TYPE_B_Attrib) refers to cicc_rc531.o(i.rc531_ClrBitMask) for rc531_ClrBitMask
    cicc_func.o(i.TYPE_B_Attrib) refers to cicc_rc531.o(i.rc531_SetBitMask) for rc531_SetBitMask
    cicc_func.o(i.TYPE_B_Attrib) refers to cicc_rc531.o(i.rc531_PcdSetFwt) for rc531_PcdSetFwt
    cicc_func.o(i.TYPE_B_Attrib) refers to cicc_public.o(i.ResetInfo_len) for ResetInfo_len
    cicc_func.o(i.TYPE_B_Attrib) refers to cicc_rc531.o(i.rc531_PcdCmd) for rc531_PcdCmd
    cicc_func.o(i.TYPE_B_Attrib) refers to cicc_public.o(.data) for ctlcfg
    cicc_func.o(i.TYPE_B_Attrib) refers to cicc_func.o(.bss) for .bss
    cicc_func.o(i.TYPE_B_Attrib) refers to cicc_public.o(.bss) for MInfo
    cicc_func.o(i.TYPE_B_Init) refers to cicc_rc531.o(i.rc531_PcdConfig_B) for rc531_PcdConfig_B
    cicc_func.o(i.TYPE_B_Init) refers to cicc_public.o(.data) for ctlcfg
    cicc_func.o(i.TYPE_B_PiccHalt) refers to cicc_rc531.o(i.rc531_Write) for rc531_Write
    cicc_func.o(i.TYPE_B_PiccHalt) refers to cicc_rc531.o(i.rc531_ClrBitMask) for rc531_ClrBitMask
    cicc_func.o(i.TYPE_B_PiccHalt) refers to cicc_rc531.o(i.rc531_SetBitMask) for rc531_SetBitMask
    cicc_func.o(i.TYPE_B_PiccHalt) refers to cicc_rc531.o(i.rc531_PcdSetTmo) for rc531_PcdSetTmo
    cicc_func.o(i.TYPE_B_PiccHalt) refers to cicc_public.o(i.ResetInfo_len) for ResetInfo_len
    cicc_func.o(i.TYPE_B_PiccHalt) refers to cicc_rc531.o(i.rc531_PcdCmd) for rc531_PcdCmd
    cicc_func.o(i.TYPE_B_PiccHalt) refers to cicc_func.o(.bss) for .bss
    cicc_func.o(i.TYPE_B_PiccHalt) refers to cicc_public.o(.bss) for MInfo
    cicc_func.o(i.TYPE_B_PiccRequest) refers to cicc_rc531.o(i.rc531_Write) for rc531_Write
    cicc_func.o(i.TYPE_B_PiccRequest) refers to cicc_rc531.o(i.rc531_ClrBitMask) for rc531_ClrBitMask
    cicc_func.o(i.TYPE_B_PiccRequest) refers to cicc_public.o(i.ResetInfo) for ResetInfo
    cicc_func.o(i.TYPE_B_PiccRequest) refers to cicc_rc531.o(i.rc531_PcdCmd) for rc531_PcdCmd
    cicc_func.o(i.TYPE_B_PiccRequest) refers to memcpya.o(.text) for __aeabi_memcpy
    cicc_func.o(i.TYPE_B_PiccRequest) refers to cicc_iso14443.o(i.ISO_PPS_B) for ISO_PPS_B
    cicc_func.o(i.TYPE_B_PiccRequest) refers to cicc_iso14443.o(i.TYPE_B_PiccPara) for TYPE_B_PiccPara
    cicc_func.o(i.TYPE_B_PiccRequest) refers to cicc_public.o(.data) for ctlcfg
    cicc_func.o(i.TYPE_B_PiccRequest) refers to cicc_public.o(.bss) for MInfo
    cicc_func.o(i.TYPE_B_PiccRequest) refers to cicc_func.o(.bss) for .bss
    cicc_func.o(i.TYPE_B_PiccRequest) refers to cicc_public.o(.data) for not_ios14443_4
    cicc_func.o(i.TYPE_B_Removal) refers to cicc_func.o(i.TYPE_B_Init) for TYPE_B_Init
    cicc_func.o(i.TYPE_B_Removal) refers to cicc_func.o(i._msdelay) for _msdelay
    cicc_func.o(i.TYPE_B_Removal) refers to cicc_func.o(i.TYPE_B_PiccRequest) for TYPE_B_PiccRequest
    cicc_func.o(i.TYPE_B_Removal) refers to cicc_rc531.o(i.rc531_PcdRfReset) for rc531_PcdRfReset
    cicc_func.o(i.TYPE_B_solt) refers to cicc_rc531.o(i.rc531_Write) for rc531_Write
    cicc_func.o(i.TYPE_B_solt) refers to cicc_rc531.o(i.rc531_ClrBitMask) for rc531_ClrBitMask
    cicc_func.o(i.TYPE_B_solt) refers to cicc_rc531.o(i.rc531_SetBitMask) for rc531_SetBitMask
    cicc_func.o(i.TYPE_B_solt) refers to cicc_rc531.o(i.rc531_PcdCmd) for rc531_PcdCmd
    cicc_func.o(i.TYPE_B_solt) refers to cicc_public.o(.bss) for MInfo
    cicc_func.o(i.TYPE_B_solt) refers to cicc_func.o(.bss) for .bss
    cicc_func.o(i.TYPE_B_solt) refers to cicc_public.o(.data) for ctlcfg
    cicc_iso14443.o(i.TYPE_A_PiccPara) refers to cicc_public.o(.data) for ctlcfg
    cicc_iso14443.o(i.TYPE_A_PiccPara) refers to cicc_iso14443.o(.data) for .data
    cicc_iso14443.o(i.TYPE_A_PiccPara) refers to cicc_iso14443.o(.bss) for .bss
    cicc_iso14443.o(i.TYPE_B_PiccPara) refers to cicc_public.o(.data) for ctlcfg
    cicc_iso14443.o(i.TYPE_B_PiccPara) refers to cicc_iso14443.o(.data) for .data
    cicc_iso14443.o(i.isoBlockExchange) refers to cicc_func.o(i._msdelay) for _msdelay
    cicc_iso14443.o(i.isoBlockExchange) refers to memcpya.o(.text) for __aeabi_memcpy
    cicc_iso14443.o(i.isoBlockExchange) refers to cicc_rc531.o(i.rc531_PcdSetFwt) for rc531_PcdSetFwt
    cicc_iso14443.o(i.isoBlockExchange) refers to cicc_rc531.o(i.rc531_PcdCmd) for rc531_PcdCmd
    cicc_iso14443.o(i.isoBlockExchange) refers to cicc_iso14443.o(i.pcdSetRblock) for pcdSetRblock
    cicc_iso14443.o(i.isoBlockExchange) refers to memseta.o(.text) for __aeabi_memclr
    cicc_iso14443.o(i.isoBlockExchange) refers to cicc_public.o(i.ResetInfo_len) for ResetInfo_len
    cicc_iso14443.o(i.isoBlockExchange) refers to cicc_iso14443.o(i.pcdSetSbrockWtx) for pcdSetSbrockWtx
    cicc_iso14443.o(i.isoBlockExchange) refers to cicc_rc531.o(i.rc531_PcdRfReset) for rc531_PcdRfReset
    cicc_iso14443.o(i.isoBlockExchange) refers to cicc_public.o(.data) for ctlcfg
    cicc_iso14443.o(i.isoBlockExchange) refers to cicc_iso14443.o(.data) for .data
    cicc_iso14443.o(i.isoBlockExchange) refers to cicc_iso14443.o(.bss) for .bss
    cicc_iso14443.o(i.isoBlockExchange) refers to cicc_public.o(.bss) for MInfo
    cicc_iso14443.o(i.isoDeselect) refers to cicc_rc531.o(i.rc531_PcdRfReset) for rc531_PcdRfReset
    cicc_iso14443.o(i.isoRatsA) refers to cicc_rc531.o(i.rc531_Write) for rc531_Write
    cicc_iso14443.o(i.isoRatsA) refers to cicc_rc531.o(i.rc531_FlushFIFO) for rc531_FlushFIFO
    cicc_iso14443.o(i.isoRatsA) refers to cicc_public.o(i.ResetInfo_len) for ResetInfo_len
    cicc_iso14443.o(i.isoRatsA) refers to cicc_rc531.o(i.rc531_PcdSetFwt) for rc531_PcdSetFwt
    cicc_iso14443.o(i.isoRatsA) refers to cicc_rc531.o(i.rc531_PcdCmd) for rc531_PcdCmd
    cicc_iso14443.o(i.isoRatsA) refers to cicc_iso14443.o(i.TYPE_A_PiccPara) for TYPE_A_PiccPara
    cicc_iso14443.o(i.isoRatsA) refers to memcpya.o(.text) for __aeabi_memcpy
    cicc_iso14443.o(i.isoRatsA) refers to cicc_iso14443.o(i.delay_www) for delay_www
    cicc_iso14443.o(i.isoRatsA) refers to cicc_iso14443.o(.bss) for .bss
    cicc_iso14443.o(i.isoRatsA) refers to cicc_public.o(.bss) for MInfo
    cicc_iso14443.o(i.isoRatsA) refers to cicc_public.o(.data) for ctlcfg
    cicc_iso14443.o(i.pcdSetRblock) refers to cicc_public.o(i.ResetInfo_len) for ResetInfo_len
    cicc_iso14443.o(i.pcdSetRblock) refers to cicc_iso14443.o(.data) for .data
    cicc_iso14443.o(i.pcdSetRblock) refers to cicc_public.o(.data) for ctlcfg
    cicc_iso14443.o(i.pcdSetRblock) refers to cicc_iso14443.o(.bss) for .bss
    cicc_iso14443.o(i.pcdSetRblock) refers to cicc_public.o(.bss) for MInfo
    cicc_iso14443.o(i.pcdSetSbrockWtx) refers to cicc_public.o(i.ResetInfo_len) for ResetInfo_len
    cicc_iso14443.o(i.pcdSetSbrockWtx) refers to cicc_rc531.o(i.rc531_Write) for rc531_Write
    cicc_iso14443.o(i.pcdSetSbrockWtx) refers to cicc_public.o(.data) for ctlcfg
    cicc_iso14443.o(i.pcdSetSbrockWtx) refers to cicc_iso14443.o(.bss) for .bss
    cicc_iso14443.o(i.pcdSetSbrockWtx) refers to cicc_public.o(.bss) for MInfo
    cicc_mifare1.o(i.M1_PcdLoadKeyE2) refers to cicc_rc531.o(i.rc531_FlushFIFO) for rc531_FlushFIFO
    cicc_mifare1.o(i.M1_PcdLoadKeyE2) refers to cicc_public.o(i.ResetInfo) for ResetInfo
    cicc_mifare1.o(i.M1_PcdLoadKeyE2) refers to cicc_mifare1.o(i.rc531_m1PcdCmd) for rc531_m1PcdCmd
    cicc_mifare1.o(i.M1_PcdLoadKeyE2) refers to cicc_public.o(.bss) for MInfo
    cicc_mifare1.o(i.M1_PcdLoadKeyE2) refers to cicc_mifare1.o(.bss) for .bss
    cicc_mifare1.o(i.M1_PcdReadE2) refers to cicc_public.o(i.ResetInfo) for ResetInfo
    cicc_mifare1.o(i.M1_PcdReadE2) refers to cicc_mifare1.o(i.rc531_m1PcdCmd) for rc531_m1PcdCmd
    cicc_mifare1.o(i.M1_PcdReadE2) refers to memcpya.o(.text) for __aeabi_memcpy
    cicc_mifare1.o(i.M1_PcdReadE2) refers to cicc_public.o(.bss) for MInfo
    cicc_mifare1.o(i.M1_PcdReadE2) refers to cicc_mifare1.o(.bss) for .bss
    cicc_mifare1.o(i.M1_PcdStoreKeyE2) refers to cicc_mifare1.o(i.M1_HostCodeKey) for M1_HostCodeKey
    cicc_mifare1.o(i.M1_PcdStoreKeyE2) refers to cicc_mifare1.o(i.M1_PcdWriteE2) for M1_PcdWriteE2
    cicc_mifare1.o(i.M1_PcdWriteE2) refers to cicc_public.o(i.ResetInfo) for ResetInfo
    cicc_mifare1.o(i.M1_PcdWriteE2) refers to memcpya.o(.text) for __aeabi_memcpy
    cicc_mifare1.o(i.M1_PcdWriteE2) refers to cicc_mifare1.o(i.rc531_m1PcdCmd) for rc531_m1PcdCmd
    cicc_mifare1.o(i.M1_PcdWriteE2) refers to cicc_public.o(.bss) for MInfo
    cicc_mifare1.o(i.M1_PcdWriteE2) refers to cicc_mifare1.o(.bss) for .bss
    cicc_mifare1.o(i.M1_PiccAuthE2) refers to cicc_rc531.o(i.rc531_FlushFIFO) for rc531_FlushFIFO
    cicc_mifare1.o(i.M1_PiccAuthE2) refers to cicc_public.o(i.ResetInfo) for ResetInfo
    cicc_mifare1.o(i.M1_PiccAuthE2) refers to cicc_mifare1.o(i.rc531_m1PcdCmd) for rc531_m1PcdCmd
    cicc_mifare1.o(i.M1_PiccAuthE2) refers to cicc_mifare1.o(i.M1_PiccAuthState) for M1_PiccAuthState
    cicc_mifare1.o(i.M1_PiccAuthE2) refers to cicc_public.o(.bss) for MInfo
    cicc_mifare1.o(i.M1_PiccAuthE2) refers to cicc_mifare1.o(.bss) for .bss
    cicc_mifare1.o(i.M1_PiccAuthState) refers to cicc_public.o(i.ResetInfo) for ResetInfo
    cicc_mifare1.o(i.M1_PiccAuthState) refers to cicc_rc531.o(i.rc531_PcdSetTmo) for rc531_PcdSetTmo
    cicc_mifare1.o(i.M1_PiccAuthState) refers to cicc_mifare1.o(i.rc531_m1PcdCmd) for rc531_m1PcdCmd
    cicc_mifare1.o(i.M1_PiccAuthState) refers to cicc_rc531.o(i.rc531_Read) for rc531_Read
    cicc_mifare1.o(i.M1_PiccAuthState) refers to cicc_func.o(.data) for m1austa
    cicc_mifare1.o(i.M1_PiccAuthState) refers to cicc_mifare1.o(.bss) for .bss
    cicc_mifare1.o(i.M1_PiccAuthState) refers to cicc_public.o(.bss) for MInfo
    cicc_mifare1.o(i.M1_PiccAuth_key) refers to cicc_mifare1.o(i.M1_HostCodeKey) for M1_HostCodeKey
    cicc_mifare1.o(i.M1_PiccAuth_key) refers to cicc_rc531.o(i.rc531_FlushFIFO) for rc531_FlushFIFO
    cicc_mifare1.o(i.M1_PiccAuth_key) refers to cicc_public.o(i.ResetInfo) for ResetInfo
    cicc_mifare1.o(i.M1_PiccAuth_key) refers to cicc_mifare1.o(i.rc531_m1PcdCmd) for rc531_m1PcdCmd
    cicc_mifare1.o(i.M1_PiccAuth_key) refers to cicc_mifare1.o(i.M1_PiccAuthState) for M1_PiccAuthState
    cicc_mifare1.o(i.M1_PiccAuth_key) refers to cicc_mifare1.o(.bss) for .bss
    cicc_mifare1.o(i.M1_PiccAuth_key) refers to cicc_public.o(.bss) for MInfo
    cicc_mifare1.o(i.M1_PiccBlockRead) refers to memcpya.o(.text) for __aeabi_memcpy
    cicc_mifare1.o(i.M1_PiccBlockRead) refers to cicc_rc531.o(i.rc531_PcdSetTmo) for rc531_PcdSetTmo
    cicc_mifare1.o(i.M1_PiccBlockRead) refers to cicc_rc531.o(i.rc531_Write) for rc531_Write
    cicc_mifare1.o(i.M1_PiccBlockRead) refers to cicc_public.o(i.ResetInfo) for ResetInfo
    cicc_mifare1.o(i.M1_PiccBlockRead) refers to cicc_mifare1.o(i.rc531_m1PcdCmd) for rc531_m1PcdCmd
    cicc_mifare1.o(i.M1_PiccBlockRead) refers to cicc_func.o(.data) for m1austa
    cicc_mifare1.o(i.M1_PiccBlockRead) refers to cicc_public.o(.bss) for MInfo
    cicc_mifare1.o(i.M1_PiccBlockRead) refers to cicc_mifare1.o(.bss) for .bss
    cicc_mifare1.o(i.M1_PiccBlockWrite) refers to cicc_rc531.o(i.rc531_FlushFIFO) for rc531_FlushFIFO
    cicc_mifare1.o(i.M1_PiccBlockWrite) refers to cicc_public.o(i.ResetInfo) for ResetInfo
    cicc_mifare1.o(i.M1_PiccBlockWrite) refers to cicc_rc531.o(i.rc531_PcdSetTmo) for rc531_PcdSetTmo
    cicc_mifare1.o(i.M1_PiccBlockWrite) refers to cicc_mifare1.o(i.rc531_m1PcdCmd) for rc531_m1PcdCmd
    cicc_mifare1.o(i.M1_PiccBlockWrite) refers to memcpya.o(.text) for __aeabi_memcpy
    cicc_mifare1.o(i.M1_PiccBlockWrite) refers to cicc_func.o(.data) for m1austa
    cicc_mifare1.o(i.M1_PiccBlockWrite) refers to cicc_public.o(.bss) for MInfo
    cicc_mifare1.o(i.M1_PiccBlockWrite) refers to cicc_mifare1.o(.bss) for .bss
    cicc_mifare1.o(i.M1_PiccDecrement) refers to cicc_rc531.o(i.rc531_Write) for rc531_Write
    cicc_mifare1.o(i.M1_PiccDecrement) refers to cicc_rc531.o(i.rc531_FlushFIFO) for rc531_FlushFIFO
    cicc_mifare1.o(i.M1_PiccDecrement) refers to cicc_public.o(i.ResetInfo) for ResetInfo
    cicc_mifare1.o(i.M1_PiccDecrement) refers to cicc_rc531.o(i.rc531_PcdSetTmo) for rc531_PcdSetTmo
    cicc_mifare1.o(i.M1_PiccDecrement) refers to cicc_mifare1.o(i.rc531_m1PcdCmd) for rc531_m1PcdCmd
    cicc_mifare1.o(i.M1_PiccDecrement) refers to cicc_mifare1.o(i.M1_PiccTransfer) for M1_PiccTransfer
    cicc_mifare1.o(i.M1_PiccDecrement) refers to cicc_func.o(.data) for m1austa
    cicc_mifare1.o(i.M1_PiccDecrement) refers to cicc_public.o(.bss) for MInfo
    cicc_mifare1.o(i.M1_PiccDecrement) refers to cicc_mifare1.o(.bss) for .bss
    cicc_mifare1.o(i.M1_PiccIncrease) refers to cicc_rc531.o(i.rc531_Write) for rc531_Write
    cicc_mifare1.o(i.M1_PiccIncrease) refers to cicc_rc531.o(i.rc531_FlushFIFO) for rc531_FlushFIFO
    cicc_mifare1.o(i.M1_PiccIncrease) refers to cicc_public.o(i.ResetInfo) for ResetInfo
    cicc_mifare1.o(i.M1_PiccIncrease) refers to cicc_rc531.o(i.rc531_PcdSetTmo) for rc531_PcdSetTmo
    cicc_mifare1.o(i.M1_PiccIncrease) refers to cicc_mifare1.o(i.rc531_m1PcdCmd) for rc531_m1PcdCmd
    cicc_mifare1.o(i.M1_PiccIncrease) refers to cicc_mifare1.o(i.M1_PiccTransfer) for M1_PiccTransfer
    cicc_mifare1.o(i.M1_PiccIncrease) refers to cicc_func.o(.data) for m1austa
    cicc_mifare1.o(i.M1_PiccIncrease) refers to cicc_public.o(.bss) for MInfo
    cicc_mifare1.o(i.M1_PiccIncrease) refers to cicc_mifare1.o(.bss) for .bss
    cicc_mifare1.o(i.M1_PiccRestore) refers to cicc_rc531.o(i.rc531_Write) for rc531_Write
    cicc_mifare1.o(i.M1_PiccRestore) refers to cicc_rc531.o(i.rc531_FlushFIFO) for rc531_FlushFIFO
    cicc_mifare1.o(i.M1_PiccRestore) refers to cicc_rc531.o(i.rc531_PcdSetTmo) for rc531_PcdSetTmo
    cicc_mifare1.o(i.M1_PiccRestore) refers to cicc_public.o(i.ResetInfo) for ResetInfo
    cicc_mifare1.o(i.M1_PiccRestore) refers to cicc_mifare1.o(i.rc531_m1PcdCmd) for rc531_m1PcdCmd
    cicc_mifare1.o(i.M1_PiccRestore) refers to cicc_func.o(.data) for m1austa
    cicc_mifare1.o(i.M1_PiccRestore) refers to cicc_public.o(.bss) for MInfo
    cicc_mifare1.o(i.M1_PiccRestore) refers to cicc_mifare1.o(.bss) for .bss
    cicc_mifare1.o(i.M1_PiccTransfer) refers to cicc_rc531.o(i.rc531_Write) for rc531_Write
    cicc_mifare1.o(i.M1_PiccTransfer) refers to cicc_rc531.o(i.rc531_FlushFIFO) for rc531_FlushFIFO
    cicc_mifare1.o(i.M1_PiccTransfer) refers to cicc_rc531.o(i.rc531_PcdSetTmo) for rc531_PcdSetTmo
    cicc_mifare1.o(i.M1_PiccTransfer) refers to cicc_public.o(i.ResetInfo) for ResetInfo
    cicc_mifare1.o(i.M1_PiccTransfer) refers to cicc_mifare1.o(i.rc531_m1PcdCmd) for rc531_m1PcdCmd
    cicc_mifare1.o(i.M1_PiccTransfer) refers to cicc_func.o(.data) for m1austa
    cicc_mifare1.o(i.M1_PiccTransfer) refers to cicc_public.o(.bss) for MInfo
    cicc_mifare1.o(i.M1_PiccTransfer) refers to cicc_mifare1.o(.bss) for .bss
    cicc_mifare1.o(i.rc531_ISR) refers to cicc_rc531.o(i.rc531_Read) for rc531_Read
    cicc_mifare1.o(i.rc531_ISR) refers to cicc_rc531.o(i.rc531_Write) for rc531_Write
    cicc_mifare1.o(i.rc531_m1PcdCmd) refers to cicc_rc531.o(i.rc531_Write) for rc531_Write
    cicc_mifare1.o(i.rc531_m1PcdCmd) refers to cicc_rc531.o(i.rc531_FlushFIFO) for rc531_FlushFIFO
    cicc_mifare1.o(i.rc531_m1PcdCmd) refers to cicc_rc531.o(i.rc531_Read) for rc531_Read
    cicc_mifare1.o(i.rc531_m1PcdCmd) refers to cicc_mifare1.o(i.rc531_ISR) for rc531_ISR
    cicc_mifare1.o(i.rc531_m1PcdCmd) refers to cicc_rc531.o(i.rc531_SetBitMask) for rc531_SetBitMask
    cicc_public.o(i.ResetInfo_len) refers to cicc_public.o(i.ResetInfo) for ResetInfo
    cicc_rc531.o(i.rc531_ClrBitMask) refers to cicc_rc531.o(i.rc531_Read) for rc531_Read
    cicc_rc531.o(i.rc531_ClrBitMask) refers to cicc_rc531.o(i.rc531_Write) for rc531_Write
    cicc_rc531.o(i.rc531_FlushFIFO) refers to cicc_func.o(i._msdelay) for _msdelay
    cicc_rc531.o(i.rc531_FlushFIFO) refers to cicc_rc531.o(i.rc531_SetBitMask) for rc531_SetBitMask
    cicc_rc531.o(i.rc531_PcdCmd) refers to cicc_rc531.o(i.rc531_Write) for rc531_Write
    cicc_rc531.o(i.rc531_PcdCmd) refers to cicc_rc531.o(i.rc531_FlushFIFO) for rc531_FlushFIFO
    cicc_rc531.o(i.rc531_PcdCmd) refers to cicc_rc531.o(i.rc531_Read) for rc531_Read
    cicc_rc531.o(i.rc531_PcdCmd) refers to cicc_rc531.o(i.rc531_SetBitMask) for rc531_SetBitMask
    cicc_rc531.o(i.rc531_PcdConfig_A) refers to cicc_spi.o(i.u7se32_rc531_interface) for u7se32_rc531_interface
    cicc_rc531.o(i.rc531_PcdConfig_A) refers to cicc_rc531.o(i.rc531_Write) for rc531_Write
    cicc_rc531.o(i.rc531_PcdConfig_A) refers to cicc_spi.o(i.u7se32_spi_read) for u7se32_spi_read
    cicc_rc531.o(i.rc531_PcdConfig_A) refers to cicc_func.o(i._msdelay) for _msdelay
    cicc_rc531.o(i.rc531_PcdConfig_A) refers to memseta.o(.text) for __aeabi_memclr
    cicc_rc531.o(i.rc531_PcdConfig_A) refers to cicc_public.o(.data) for ctlcfg
    cicc_rc531.o(i.rc531_PcdConfig_B) refers to cicc_spi.o(i.u7se32_rc531_interface) for u7se32_rc531_interface
    cicc_rc531.o(i.rc531_PcdConfig_B) refers to cicc_rc531.o(i.rc531_Write) for rc531_Write
    cicc_rc531.o(i.rc531_PcdConfig_B) refers to cicc_spi.o(i.u7se32_spi_read) for u7se32_spi_read
    cicc_rc531.o(i.rc531_PcdConfig_B) refers to cicc_func.o(i._msdelay) for _msdelay
    cicc_rc531.o(i.rc531_PcdConfig_B) refers to memseta.o(.text) for __aeabi_memclr
    cicc_rc531.o(i.rc531_PcdConfig_B) refers to cicc_public.o(.data) for ctlcfg
    cicc_rc531.o(i.rc531_PcdMfOutSelect) refers to cicc_rc531.o(i.rc531_Write) for rc531_Write
    cicc_rc531.o(i.rc531_PcdReset) refers to cicc_spi.o(i.u7se32_rc531_reset) for u7se32_rc531_reset
    cicc_rc531.o(i.rc531_PcdReset) refers to cicc_spi.o(i.u7se32_spi_read) for u7se32_spi_read
    cicc_rc531.o(i.rc531_PcdReset) refers to cicc_spi.o(i.u7se32_rc531_interface) for u7se32_rc531_interface
    cicc_rc531.o(i.rc531_PcdReset) refers to memseta.o(.text) for __aeabi_memclr
    cicc_rc531.o(i.rc531_PcdReset) refers to cicc_public.o(.data) for ctlcfg
    cicc_rc531.o(i.rc531_PcdReset) refers to cicc_func.o(.data) for m1austa
    cicc_rc531.o(i.rc531_PcdRfReset) refers to cicc_func.o(i._msdelay) for _msdelay
    cicc_rc531.o(i.rc531_PcdRfReset) refers to cicc_rc531.o(i.rc531_ClrBitMask) for rc531_ClrBitMask
    cicc_rc531.o(i.rc531_PcdRfReset) refers to cicc_rc531.o(i.rc531_SetBitMask) for rc531_SetBitMask
    cicc_rc531.o(i.rc531_PcdRfReset) refers to memseta.o(.text) for __aeabi_memclr
    cicc_rc531.o(i.rc531_PcdRfReset) refers to cicc_public.o(.data) for ctlcfg
    cicc_rc531.o(i.rc531_PcdRfReset) refers to cicc_func.o(.data) for m1austa
    cicc_rc531.o(i.rc531_PcdSetFwt) refers to cicc_rc531.o(i.rc531_Write) for rc531_Write
    cicc_rc531.o(i.rc531_PcdSetTmo) refers to cicc_rc531.o(i.rc531_Write) for rc531_Write
    cicc_rc531.o(i.rc531_Read) refers to cicc_spi.o(i.u7se32_spi_read) for u7se32_spi_read
    cicc_rc531.o(i.rc531_SetBitMask) refers to cicc_rc531.o(i.rc531_Read) for rc531_Read
    cicc_rc531.o(i.rc531_SetBitMask) refers to cicc_rc531.o(i.rc531_Write) for rc531_Write
    cicc_rc531.o(i.rc531_Write) refers to cicc_spi.o(i.u7se32_spi_write) for u7se32_spi_write
    cicc_spi.o(i.u7se32_rc531_interface) refers to cicc_spi.o(i.u7se32_spi_write) for u7se32_spi_write
    cicc_spi.o(i.u7se32_rc531_interface) refers to cicc_func.o(i._msdelay) for _msdelay
    cicc_spi.o(i.u7se32_rc531_interface) refers to cicc_spi.o(i.u7se32_spi_read) for u7se32_spi_read
    cicc_spi.o(i.u7se32_rc531_reset) refers to bsp_spi.o(i.spi_rc531_set_rst) for spi_rc531_set_rst
    cicc_spi.o(i.u7se32_rc531_reset) refers to bsp_spi.o(i.spi_rc531_set_nss) for spi_rc531_set_nss
    cicc_spi.o(i.u7se32_rc531_reset) refers to bsp_systick.o(i.SYSTICK_Delay10ms) for SYSTICK_Delay10ms
    cicc_spi.o(i.u7se32_spi_read) refers to bsp_spi.o(i.spi_rc531_set_nss) for spi_rc531_set_nss
    cicc_spi.o(i.u7se32_spi_read) refers to bsp_spi.o(i.spi_rc531_readwrite_byte) for spi_rc531_readwrite_byte
    cicc_spi.o(i.u7se32_spi_write) refers to bsp_spi.o(i.spi_rc531_set_nss) for spi_rc531_set_nss
    cicc_spi.o(i.u7se32_spi_write) refers to bsp_spi.o(i.spi_rc531_readwrite_byte) for spi_rc531_readwrite_byte
    cicc_spi.o(i.u7se32_spi_write) refers to bsp_systick.o(i.SYSTICK_Delay10ms) for SYSTICK_Delay10ms
    rfid_firmware.o(i.Download_FW) refers to bsp_systick.o(i.SYSTICK_Delay10ms) for SYSTICK_Delay10ms
    rfid_firmware.o(i.Download_FW) refers to bsp_gpio.o(i.GPIO_uhf_cen_disable) for GPIO_uhf_cen_disable
    rfid_firmware.o(i.Download_FW) refers to rfid_firmware.o(i.Delayus) for Delayus
    rfid_firmware.o(i.Download_FW) refers to bsp_gpio.o(i.GPIO_uhf_cen_enable) for GPIO_uhf_cen_enable
    rfid_firmware.o(i.Download_FW) refers to bsp_usart.o(i.UART4_Config_Baud) for UART4_Config_Baud
    rfid_firmware.o(i.Download_FW) refers to bsp_usart.o(i.UART4_SendData) for UART4_SendData
    rfid_firmware.o(i.Download_FW) refers to rfid_firmware.o(i.Rece_Data_Uart0) for Rece_Data_Uart0
    rfid_firmware.o(i.Download_FW) refers to rfid_firmware.o(.data) for .data
    rfid_firmware.o(i.Download_FW) refers to rfid_firmware.o(.constdata) for .constdata
    rfid_firmware.o(i.FW_ResetM100) refers to bsp_gpio.o(i.GPIO_uhf_cen_disable) for GPIO_uhf_cen_disable
    rfid_firmware.o(i.FW_ResetM100) refers to rfid_firmware.o(i.Delayus) for Delayus
    rfid_firmware.o(i.FW_ResetM100) refers to bsp_gpio.o(i.GPIO_uhf_cen_enable) for GPIO_uhf_cen_enable
    rfid_firmware.o(i.Rece_Data_Uart0) refers to bsp_usart.o(i.UART4_ReceiveByte) for UART4_ReceiveByte
    rfid_firmware.o(i.ResetReaderChip) refers to rfid_firmware.o(i.Download_FW) for Download_FW
    rfid_firmware.o(i.ResetReaderChip) refers to rfid_firmware.o(.data) for .data
    rfid_firmware.o(i.Send_Data_Uart0) refers to bsp_usart.o(i.UART4_SendData) for UART4_SendData
    rfid_firmware.o(i.Set_UART0_BAUD) refers to bsp_usart.o(i.UART4_Config_Baud) for UART4_Config_Baud
    pn512.o(i.CICCA512_ACITIVE) refers to memseta.o(.text) for __aeabi_memclr4
    pn512.o(i.CICCA512_ACITIVE) refers to pn512.o(i.WriteRawRC) for WriteRawRC
    pn512.o(i.CICCA512_ACITIVE) refers to pn512.o(i.CalulateCRC) for CalulateCRC
    pn512.o(i.CICCA512_ACITIVE) refers to pn512.o(i.ClearBitMask) for ClearBitMask
    pn512.o(i.CICCA512_ACITIVE) refers to pn512.o(i.PcdComMF522) for PcdComMF522
    pn512.o(i.CalulateCRC) refers to pn512.o(i.ClearBitMask) for ClearBitMask
    pn512.o(i.CalulateCRC) refers to pn512.o(i.WriteRawRC) for WriteRawRC
    pn512.o(i.CalulateCRC) refers to pn512.o(i.SetBitMask) for SetBitMask
    pn512.o(i.CalulateCRC) refers to pn512.o(i.ReadRawRC) for ReadRawRC
    pn512.o(i.Cicc_Apdu512) refers to memseta.o(.text) for __aeabi_memclr4
    pn512.o(i.Cicc_Apdu512) refers to pn512.o(i.LPC_memcpy) for LPC_memcpy
    pn512.o(i.Cicc_Apdu512) refers to pn512.o(i.CalulateCRC) for CalulateCRC
    pn512.o(i.Cicc_Apdu512) refers to pn512.o(i.PcdComMF522) for PcdComMF522
    pn512.o(i.ClearBitMask) refers to pn512.o(i.ReadRawRC) for ReadRawRC
    pn512.o(i.ClearBitMask) refers to pn512.o(i.WriteRawRC) for WriteRawRC
    pn512.o(i.M500PcdReset) refers to bsp_spi.o(i.spi_pn512_set_rst) for spi_pn512_set_rst
    pn512.o(i.M500PcdReset) refers to pn512.o(i.Delay_us) for Delay_us
    pn512.o(i.M500PcdReset) refers to pn512.o(i.WriteRawRC) for WriteRawRC
    pn512.o(i.M500PcdReset) refers to pn512.o(i.ReadRawRC) for ReadRawRC
    pn512.o(i.MfConfig) refers to pn512.o(i.PN512PcdConfig) for PN512PcdConfig
    pn512.o(i.PN512PcdConfig) refers to pn512.o(i.M500PcdReset) for M500PcdReset
    pn512.o(i.PN512PcdConfigISOType) refers to pn512.o(i.WriteRawRC) for WriteRawRC
    pn512.o(i.PN512PcdConfigISOType) refers to pn512.o(i.Delay_us) for Delay_us
    pn512.o(i.PN512PcdConfigISOType) refers to pn512.o(i.ClearBitMask) for ClearBitMask
    pn512.o(i.PN512PcdConfigISOType) refers to pn512.o(i.PcdAntennaOn) for PcdAntennaOn
    pn512.o(i.PN512_Init) refers to bsp_spi.o(i.spi_pn512_set_rst) for spi_pn512_set_rst
    pn512.o(i.PN512_Init) refers to bsp_spi.o(i.spi_pn512_set_nss) for spi_pn512_set_nss
    pn512.o(i.PN512_Init) refers to pn512.o(i.MfConfig) for MfConfig
    pn512.o(i.PcdAntennaOff) refers to pn512.o(i.ClearBitMask) for ClearBitMask
    pn512.o(i.PcdAntennaOn) refers to pn512.o(i.ClearBitMask) for ClearBitMask
    pn512.o(i.PcdAntennaOn) refers to pn512.o(i.SetBitMask) for SetBitMask
    pn512.o(i.PcdAnticoll) refers to memseta.o(.text) for __aeabi_memclr4
    pn512.o(i.PcdAnticoll) refers to pn512.o(i.ClearBitMask) for ClearBitMask
    pn512.o(i.PcdAnticoll) refers to pn512.o(i.WriteRawRC) for WriteRawRC
    pn512.o(i.PcdAnticoll) refers to pn512.o(i.PcdComMF522) for PcdComMF522
    pn512.o(i.PcdAnticoll) refers to pn512.o(i.Delay_us) for Delay_us
    pn512.o(i.PcdAnticoll) refers to pn512.o(i.SetBitMask) for SetBitMask
    pn512.o(i.PcdAuthState) refers to memseta.o(.text) for __aeabi_memclr4
    pn512.o(i.PcdAuthState) refers to pn512.o(i.PcdComMF522) for PcdComMF522
    pn512.o(i.PcdAuthState) refers to pn512.o(i.ReadRawRC) for ReadRawRC
    pn512.o(i.PcdBakValue) refers to memseta.o(.text) for __aeabi_memclr4
    pn512.o(i.PcdBakValue) refers to pn512.o(i.CalulateCRC) for CalulateCRC
    pn512.o(i.PcdBakValue) refers to pn512.o(i.PcdComMF522) for PcdComMF522
    pn512.o(i.PcdComMF522) refers to pn512.o(i.WriteRawRC) for WriteRawRC
    pn512.o(i.PcdComMF522) refers to pn512.o(i.ClearBitMask) for ClearBitMask
    pn512.o(i.PcdComMF522) refers to pn512.o(i.SetBitMask) for SetBitMask
    pn512.o(i.PcdComMF522) refers to pn512.o(i.ReadRawRC) for ReadRawRC
    pn512.o(i.PcdHalt) refers to pn512.o(i.WriteRawRC) for WriteRawRC
    pn512.o(i.PcdHalt) refers to pn512.o(i.PcdAntennaOn) for PcdAntennaOn
    pn512.o(i.PcdRead) refers to memseta.o(.text) for __aeabi_memclr4
    pn512.o(i.PcdRead) refers to pn512.o(i.CalulateCRC) for CalulateCRC
    pn512.o(i.PcdRead) refers to pn512.o(i.PcdComMF522) for PcdComMF522
    pn512.o(i.PcdRequest) refers to memseta.o(.text) for __aeabi_memclr4
    pn512.o(i.PcdRequest) refers to pn512.o(i.ClearBitMask) for ClearBitMask
    pn512.o(i.PcdRequest) refers to pn512.o(i.WriteRawRC) for WriteRawRC
    pn512.o(i.PcdRequest) refers to pn512.o(i.SetBitMask) for SetBitMask
    pn512.o(i.PcdRequest) refers to pn512.o(i.PcdComMF522) for PcdComMF522
    pn512.o(i.PcdSelect) refers to memseta.o(.text) for __aeabi_memclr4
    pn512.o(i.PcdSelect) refers to pn512.o(i.CalulateCRC) for CalulateCRC
    pn512.o(i.PcdSelect) refers to pn512.o(i.ClearBitMask) for ClearBitMask
    pn512.o(i.PcdSelect) refers to pn512.o(i.PcdComMF522) for PcdComMF522
    pn512.o(i.PcdValue) refers to memseta.o(.text) for __aeabi_memclr4
    pn512.o(i.PcdValue) refers to pn512.o(i.CalulateCRC) for CalulateCRC
    pn512.o(i.PcdValue) refers to pn512.o(i.PcdComMF522) for PcdComMF522
    pn512.o(i.PcdWrite) refers to memseta.o(.text) for __aeabi_memclr4
    pn512.o(i.PcdWrite) refers to pn512.o(i.CalulateCRC) for CalulateCRC
    pn512.o(i.PcdWrite) refers to pn512.o(i.PcdComMF522) for PcdComMF522
    pn512.o(i.ReadRawRC) refers to bsp_spi.o(i.spi_pn512_set_nss) for spi_pn512_set_nss
    pn512.o(i.ReadRawRC) refers to bsp_spi.o(i.spi_pn512_readwrite_byte) for spi_pn512_readwrite_byte
    pn512.o(i.ReaderATTRIB) refers to pn512.o(i.PcdComMF522) for PcdComMF522
    pn512.o(i.ReaderREQB) refers to memseta.o(.text) for __aeabi_memclr4
    pn512.o(i.ReaderREQB) refers to pn512.o(i.CalulateCRC) for CalulateCRC
    pn512.o(i.ReaderREQB) refers to pn512.o(i.SetBitMask) for SetBitMask
    pn512.o(i.ReaderREQB) refers to pn512.o(i.ClearBitMask) for ClearBitMask
    pn512.o(i.ReaderREQB) refers to pn512.o(i.PcdComMF522) for PcdComMF522
    pn512.o(i.SetBitMask) refers to pn512.o(i.ReadRawRC) for ReadRawRC
    pn512.o(i.SetBitMask) refers to pn512.o(i.WriteRawRC) for WriteRawRC
    pn512.o(i.SetTimeOut) refers to pn512.o(i.WriteRawRC) for WriteRawRC
    pn512.o(i.WriteRawRC) refers to bsp_spi.o(i.spi_pn512_set_nss) for spi_pn512_set_nss
    pn512.o(i.WriteRawRC) refers to bsp_spi.o(i.spi_pn512_readwrite_byte) for spi_pn512_readwrite_byte
    iso14443-subr.o(i.iso14443_cascade_uid) refers to memcpya.o(.text) for __aeabi_memcpy
    iso14443-subr.o(i.iso14443a_crc_append) refers to iso14443-subr.o(i.iso14443a_crc) for iso14443a_crc
    iso14443-subr.o(i.iso14443b_crc_append) refers to iso14443-subr.o(i.iso14443b_crc) for iso14443b_crc
    mirror-subr.o(i.mirror) refers to mirror-subr.o(.constdata) for .constdata
    mirror-subr.o(i.mirror32) refers to mirror-subr.o(i.mirror_bytes) for mirror_bytes
    mirror-subr.o(i.mirror64) refers to mirror-subr.o(i.mirror_bytes) for mirror_bytes
    mirror-subr.o(i.mirror_bytes) refers to mirror-subr.o(.constdata) for .constdata
    nfc.o(i.nfc_device_validate_modulation) refers to nfc.o(i.nfc_device_get_supported_modulation) for nfc_device_get_supported_modulation
    nfc.o(i.nfc_device_validate_modulation) refers to nfc.o(i.nfc_device_get_supported_baud_rate_target_mode) for nfc_device_get_supported_baud_rate_target_mode
    nfc.o(i.nfc_device_validate_modulation) refers to nfc.o(i.nfc_device_get_supported_baud_rate) for nfc_device_get_supported_baud_rate
    nfc.o(i.nfc_exit) refers to malloc.o(i.free) for free
    nfc.o(i.nfc_exit) refers to nfc-internal.o(i.nfc_context_free) for nfc_context_free
    nfc.o(i.nfc_exit) refers to nfc.o(.data) for .data
    nfc.o(i.nfc_free) refers to malloc.o(i.free) for free
    nfc.o(i.nfc_init) refers to nfc-internal.o(i.nfc_context_new) for nfc_context_new
    nfc.o(i.nfc_init) refers to perror.o(i.perror) for perror
    nfc.o(i.nfc_initiator_init) refers to nfc.o(i.nfc_device_set_property_bool) for nfc_device_set_property_bool
    nfc.o(i.nfc_initiator_list_passive_targets) refers to nfc.o(i.nfc_device_set_property_bool) for nfc_device_set_property_bool
    nfc.o(i.nfc_initiator_list_passive_targets) refers to nfc-internal.o(i.prepare_initiator_data) for prepare_initiator_data
    nfc.o(i.nfc_initiator_list_passive_targets) refers to memcmp.o(.text) for memcmp
    nfc.o(i.nfc_initiator_list_passive_targets) refers to memcpya.o(.text) for __aeabi_memcpy
    nfc.o(i.nfc_initiator_list_passive_targets) refers to nfc.o(i.nfc_initiator_deselect_target) for nfc_initiator_deselect_target
    nfc.o(i.nfc_initiator_list_passive_targets) refers to nfc.o(i.nfc_initiator_select_passive_target) for nfc_initiator_select_passive_target
    nfc.o(i.nfc_initiator_poll_dep_target) refers to nfc.o(i.nfc_device_set_property_bool) for nfc_device_set_property_bool
    nfc.o(i.nfc_initiator_poll_dep_target) refers to nfc.o(i.nfc_initiator_select_dep_target) for nfc_initiator_select_dep_target
    nfc.o(i.nfc_initiator_select_passive_target) refers to malloc.o(i.malloc) for malloc
    nfc.o(i.nfc_initiator_select_passive_target) refers to nfc.o(i.nfc_device_validate_modulation) for nfc_device_validate_modulation
    nfc.o(i.nfc_initiator_select_passive_target) refers to malloc.o(i.free) for free
    nfc.o(i.nfc_initiator_select_passive_target) refers to memcpya.o(.text) for __aeabi_memcpy
    nfc.o(i.nfc_initiator_select_passive_target) refers to nfc-internal.o(i.prepare_initiator_data) for prepare_initiator_data
    nfc.o(i.nfc_initiator_select_passive_target) refers to iso14443-subr.o(i.iso14443_cascade_uid) for iso14443_cascade_uid
    nfc.o(i.nfc_list_devices) refers to nfc.o(.data) for .data
    nfc.o(i.nfc_open) refers to strncpy.o(.text) for strncpy
    nfc.o(i.nfc_open) refers to nfc.o(i.nfc_list_devices) for nfc_list_devices
    nfc.o(i.nfc_open) refers to strlen.o(.text) for strlen
    nfc.o(i.nfc_open) refers to strncmp.o(.text) for strncmp
    nfc.o(i.nfc_open) refers to strcmp.o(.text) for strcmp
    nfc.o(i.nfc_open) refers to strcpy.o(.text) for strcpy
    nfc.o(i.nfc_open) refers to nfc.o(.data) for .data
    nfc.o(i.nfc_perror) refers to nfc.o(i.nfc_strerror) for nfc_strerror
    nfc.o(i.nfc_perror) refers to printfa.o(i.__0fprintf) for __2fprintf
    nfc.o(i.nfc_perror) refers to stderr.o(.data) for __stderr
    nfc.o(i.nfc_register_driver) refers to malloc.o(i.malloc) for malloc
    nfc.o(i.nfc_register_driver) refers to nfc.o(.data) for .data
    nfc.o(i.nfc_strerror) refers to nfc.o(.data) for .data
    nfc.o(i.nfc_strerror_r) refers to nfc.o(i.nfc_strerror) for nfc_strerror
    nfc.o(i.nfc_strerror_r) refers to printfa.o(i.__0snprintf) for __2snprintf
    nfc.o(i.nfc_target_init) refers to nfc.o(i.nfc_device_set_property_bool) for nfc_device_set_property_bool
    nfc.o(i.str_nfc_target) refers to malloc.o(i.malloc) for malloc
    nfc.o(i.str_nfc_target) refers to target-subr.o(i.snprint_nfc_target) for snprint_nfc_target
    nfc.o(i.str_nfc_target) refers to strlen.o(.text) for strlen
    nfc.o(.data) refers to nfc.o(.conststring) for .conststring
    nfc-internal.o(i.connstring_decode) refers to strlen.o(.text) for strlen
    nfc-internal.o(i.connstring_decode) refers to malloc.o(i.malloc) for malloc
    nfc-internal.o(i.connstring_decode) refers to printfa.o(i.__0snprintf) for __2snprintf
    nfc-internal.o(i.connstring_decode) refers to sscanf.o(.text) for sscanf
    nfc-internal.o(i.connstring_decode) refers to strcmp.o(.text) for strcmp
    nfc-internal.o(i.connstring_decode) refers to malloc.o(i.free) for free
    nfc-internal.o(i.connstring_decode) refers to perror.o(i.perror) for perror
    nfc-internal.o(i.nfc_context_free) refers to malloc.o(i.free) for free
    nfc-internal.o(i.nfc_context_new) refers to malloc.o(i.malloc) for malloc
    nfc-internal.o(i.string_as_boolean) refers to strcmp.o(.text) for strcmp
    target-subr.o(i.snprint_hex) refers to printfa.o(i.__0snprintf) for __2snprintf
    target-subr.o(i.snprint_nfc_dep_info) refers to printfa.o(i.__0snprintf) for __2snprintf
    target-subr.o(i.snprint_nfc_dep_info) refers to target-subr.o(i.snprint_hex) for snprint_hex
    target-subr.o(i.snprint_nfc_felica_info) refers to printfa.o(i.__0snprintf) for __2snprintf
    target-subr.o(i.snprint_nfc_felica_info) refers to target-subr.o(i.snprint_hex) for snprint_hex
    target-subr.o(i.snprint_nfc_iso14443a_info) refers to printfa.o(i.__0snprintf) for __2snprintf
    target-subr.o(i.snprint_nfc_iso14443a_info) refers to target-subr.o(i.snprint_hex) for snprint_hex
    target-subr.o(i.snprint_nfc_iso14443a_info) refers to memcpya.o(.text) for __aeabi_memcpy4
    target-subr.o(i.snprint_nfc_iso14443a_info) refers to dflti.o(.text) for __aeabi_i2d
    target-subr.o(i.snprint_nfc_iso14443a_info) refers to dscalb.o(.text) for __ARM_scalbn
    target-subr.o(i.snprint_nfc_iso14443a_info) refers to ddiv.o(.text) for __aeabi_ddiv
    target-subr.o(i.snprint_nfc_iso14443a_info) refers to target-subr.o(.constdata) for .constdata
    target-subr.o(i.snprint_nfc_iso14443a_info) refers to target-subr.o(.conststring) for .conststring
    target-subr.o(i.snprint_nfc_iso14443a_info) refers to target-subr.o(.data) for .data
    target-subr.o(i.snprint_nfc_iso14443b2ct_info) refers to printfa.o(i.__0snprintf) for __2snprintf
    target-subr.o(i.snprint_nfc_iso14443b2ct_info) refers to target-subr.o(i.snprint_hex) for snprint_hex
    target-subr.o(i.snprint_nfc_iso14443b2sr_info) refers to printfa.o(i.__0snprintf) for __2snprintf
    target-subr.o(i.snprint_nfc_iso14443b2sr_info) refers to target-subr.o(i.snprint_hex) for snprint_hex
    target-subr.o(i.snprint_nfc_iso14443b_info) refers to printfa.o(i.__0snprintf) for __2snprintf
    target-subr.o(i.snprint_nfc_iso14443b_info) refers to target-subr.o(i.snprint_hex) for snprint_hex
    target-subr.o(i.snprint_nfc_iso14443b_info) refers to memcpya.o(.text) for __aeabi_memcpy4
    target-subr.o(i.snprint_nfc_iso14443b_info) refers to dflti.o(.text) for __aeabi_i2d
    target-subr.o(i.snprint_nfc_iso14443b_info) refers to dscalb.o(.text) for __ARM_scalbn
    target-subr.o(i.snprint_nfc_iso14443b_info) refers to ddiv.o(.text) for __aeabi_ddiv
    target-subr.o(i.snprint_nfc_iso14443b_info) refers to target-subr.o(.constdata) for .constdata
    target-subr.o(i.snprint_nfc_iso14443bi_info) refers to printfa.o(i.__0snprintf) for __2snprintf
    target-subr.o(i.snprint_nfc_iso14443bi_info) refers to target-subr.o(i.snprint_hex) for snprint_hex
    target-subr.o(i.snprint_nfc_jewel_info) refers to printfa.o(i.__0snprintf) for __2snprintf
    target-subr.o(i.snprint_nfc_jewel_info) refers to target-subr.o(i.snprint_hex) for snprint_hex
    target-subr.o(i.snprint_nfc_target) refers to nfc.o(i.str_nfc_baud_rate) for str_nfc_baud_rate
    target-subr.o(i.snprint_nfc_target) refers to nfc.o(i.str_nfc_modulation_type) for str_nfc_modulation_type
    target-subr.o(i.snprint_nfc_target) refers to printfa.o(i.__0snprintf) for __2snprintf
    target-subr.o(i.snprint_nfc_target) refers to target-subr.o(i.snprint_nfc_iso14443a_info) for snprint_nfc_iso14443a_info
    target-subr.o(i.snprint_nfc_target) refers to target-subr.o(i.snprint_nfc_jewel_info) for snprint_nfc_jewel_info
    target-subr.o(i.snprint_nfc_target) refers to target-subr.o(i.snprint_nfc_felica_info) for snprint_nfc_felica_info
    target-subr.o(i.snprint_nfc_target) refers to target-subr.o(i.snprint_nfc_iso14443b_info) for snprint_nfc_iso14443b_info
    target-subr.o(i.snprint_nfc_target) refers to target-subr.o(i.snprint_nfc_iso14443bi_info) for snprint_nfc_iso14443bi_info
    target-subr.o(i.snprint_nfc_target) refers to target-subr.o(i.snprint_nfc_iso14443b2sr_info) for snprint_nfc_iso14443b2sr_info
    target-subr.o(i.snprint_nfc_target) refers to target-subr.o(i.snprint_nfc_iso14443b2ct_info) for snprint_nfc_iso14443b2ct_info
    target-subr.o(i.snprint_nfc_target) refers to target-subr.o(i.snprint_nfc_dep_info) for snprint_nfc_dep_info
    my_inittask.o(i.My_InitTask) refers to my_inittask.o(i.NVIC_Configuration) for NVIC_Configuration
    my_inittask.o(i.My_InitTask) refers to bsp_usart.o(i.USART_Configuration) for USART_Configuration
    my_inittask.o(i.My_InitTask) refers to bsp_usart.o(i.UART4_Configuration) for UART4_Configuration
    my_inittask.o(i.My_InitTask) refers to bsp_systick.o(i.SYSTICK_Configuration) for SYSTICK_Configuration
    my_inittask.o(i.My_InitTask) refers to bsp_spi.o(i.spi_rc531_configuration) for spi_rc531_configuration
    my_inittask.o(i.My_InitTask) refers to bsp_gpio.o(i.GPIO_LF125K_configuration) for GPIO_LF125K_configuration
    my_inittask.o(i.My_InitTask) refers to bsp_gpio.o(i.GPIO_Uhf_configuration) for GPIO_Uhf_configuration
    my_inittask.o(i.My_InitTask) refers to bsp_pwm.o(i.PWM_configuration) for PWM_configuration
    my_inittask.o(i.My_InitTask) refers to bsp_spi.o(i.spi_pn512_configuration) for spi_pn512_configuration
    my_inittask.o(i.NVIC_Configuration) refers to misc.o(i.NVIC_PriorityGroupConfig) for NVIC_PriorityGroupConfig
    my_inittask.o(i.NVIC_Configuration) refers to misc.o(i.NVIC_Init) for NVIC_Init
    my_inittask.o(i.RCC_Configuration) refers to stm32f10x_rcc.o(i.RCC_DeInit) for RCC_DeInit
    my_inittask.o(i.RCC_Configuration) refers to stm32f10x_rcc.o(i.RCC_HSEConfig) for RCC_HSEConfig
    my_inittask.o(i.RCC_Configuration) refers to stm32f10x_rcc.o(i.RCC_WaitForHSEStartUp) for RCC_WaitForHSEStartUp
    my_inittask.o(i.RCC_Configuration) refers to stm32f10x_rcc.o(i.RCC_HCLKConfig) for RCC_HCLKConfig
    my_inittask.o(i.RCC_Configuration) refers to stm32f10x_rcc.o(i.RCC_PCLK2Config) for RCC_PCLK2Config
    my_inittask.o(i.RCC_Configuration) refers to stm32f10x_rcc.o(i.RCC_PCLK1Config) for RCC_PCLK1Config
    my_inittask.o(i.RCC_Configuration) refers to stm32f10x_flash.o(i.FLASH_SetLatency) for FLASH_SetLatency
    my_inittask.o(i.RCC_Configuration) refers to stm32f10x_flash.o(i.FLASH_PrefetchBufferCmd) for FLASH_PrefetchBufferCmd
    my_inittask.o(i.RCC_Configuration) refers to stm32f10x_rcc.o(i.RCC_PLLConfig) for RCC_PLLConfig
    my_inittask.o(i.RCC_Configuration) refers to stm32f10x_rcc.o(i.RCC_PLLCmd) for RCC_PLLCmd
    my_inittask.o(i.RCC_Configuration) refers to stm32f10x_rcc.o(i.RCC_GetFlagStatus) for RCC_GetFlagStatus
    my_inittask.o(i.RCC_Configuration) refers to stm32f10x_rcc.o(i.RCC_SYSCLKConfig) for RCC_SYSCLKConfig
    my_inittask.o(i.RCC_Configuration) refers to stm32f10x_rcc.o(i.RCC_GetSYSCLKSource) for RCC_GetSYSCLKSource
    stm32f10x_it.o(i.BusFault_Handler) refers to printfa.o(i.__0printf) for __2printf
    stm32f10x_it.o(i.EXTI15_10_IRQHandler) refers to stm32f10x_exti.o(i.EXTI_GetITStatus) for EXTI_GetITStatus
    stm32f10x_it.o(i.EXTI15_10_IRQHandler) refers to stm32f10x_exti.o(i.EXTI_ClearITPendingBit) for EXTI_ClearITPendingBit
    stm32f10x_it.o(i.EXTI9_5_IRQHandler) refers to stm32f10x_exti.o(i.EXTI_GetITStatus) for EXTI_GetITStatus
    stm32f10x_it.o(i.EXTI9_5_IRQHandler) refers to stm32f10x_exti.o(i.EXTI_ClearITPendingBit) for EXTI_ClearITPendingBit
    stm32f10x_it.o(i.HardFault_Handler) refers to printfa.o(i.__0printf) for __2printf
    stm32f10x_it.o(i.MemManage_Handler) refers to printfa.o(i.__0printf) for __2printf
    stm32f10x_it.o(i.SysTick_Handler) refers to bsp_systick.o(.data) for jiffies
    stm32f10x_it.o(i.UART4_IRQHandler) refers to stm32f10x_usart.o(i.USART_GetITStatus) for USART_GetITStatus
    stm32f10x_it.o(i.UART4_IRQHandler) refers to stm32f10x_usart.o(i.USART_ReceiveData) for USART_ReceiveData
    stm32f10x_it.o(i.UART4_IRQHandler) refers to protocol.o(i.PTC_sendbyte_n) for PTC_sendbyte_n
    stm32f10x_it.o(i.USART1_IRQHandler) refers to stm32f10x_usart.o(i.USART_GetITStatus) for USART_GetITStatus
    stm32f10x_it.o(i.USART1_IRQHandler) refers to stm32f10x_usart.o(i.USART_ReceiveData) for USART_ReceiveData
    stm32f10x_it.o(i.USART1_IRQHandler) refers to protocol.o(i.PTC_receive_data) for PTC_receive_data
    stm32f10x_it.o(i.USART2_IRQHandler) refers to stm32f10x_usart.o(i.USART_GetITStatus) for USART_GetITStatus
    stm32f10x_it.o(i.USART3_IRQHandler) refers to stm32f10x_usart.o(i.USART_GetITStatus) for USART_GetITStatus
    stm32f10x_it.o(i.USART3_IRQHandler) refers to stm32f10x_usart.o(i.USART_ReceiveData) for USART_ReceiveData
    stm32f10x_it.o(i.UsageFault_Handler) refers to printfa.o(i.__0printf) for __2printf
    bsp_systick.o(i.SYSTICK_Configuration) refers to misc.o(i.SysTick_CLKSourceConfig) for SysTick_CLKSourceConfig
    bsp_systick.o(i.SYSTICK_Configuration) refers to bsp_systick.o(.data) for .data
    bsp_systick.o(i.SYSTICK_Delay10ms) refers to bsp_systick.o(.data) for .data
    bsp_systick.o(i.SYSTICK_get_time) refers to bsp_systick.o(.data) for .data
    bsp_usart.o(i.UART4_Config_Baud) refers to stm32f10x_usart.o(i.USART_Cmd) for USART_Cmd
    bsp_usart.o(i.UART4_Config_Baud) refers to stm32f10x_usart.o(i.USART_Init) for USART_Init
    bsp_usart.o(i.UART4_Configuration) refers to stm32f10x_rcc.o(i.RCC_APB2PeriphClockCmd) for RCC_APB2PeriphClockCmd
    bsp_usart.o(i.UART4_Configuration) refers to stm32f10x_rcc.o(i.RCC_APB1PeriphClockCmd) for RCC_APB1PeriphClockCmd
    bsp_usart.o(i.UART4_Configuration) refers to stm32f10x_gpio.o(i.GPIO_Init) for GPIO_Init
    bsp_usart.o(i.UART4_Configuration) refers to stm32f10x_usart.o(i.USART_Init) for USART_Init
    bsp_usart.o(i.UART4_Configuration) refers to stm32f10x_usart.o(i.USART_Cmd) for USART_Cmd
    bsp_usart.o(i.UART4_Configuration) refers to stm32f10x_usart.o(i.USART_ClearFlag) for USART_ClearFlag
    bsp_usart.o(i.UART4_ReceiveByte) refers to stm32f10x_usart.o(i.USART_GetFlagStatus) for USART_GetFlagStatus
    bsp_usart.o(i.UART4_ReceiveByte) refers to stm32f10x_usart.o(i.USART_ReceiveData) for USART_ReceiveData
    bsp_usart.o(i.UART4_SendData) refers to stm32f10x_usart.o(i.USART_SendData) for USART_SendData
    bsp_usart.o(i.UART4_SendData) refers to stm32f10x_usart.o(i.USART_GetFlagStatus) for USART_GetFlagStatus
    bsp_usart.o(i.UART4_set_IT_RXNE) refers to stm32f10x_usart.o(i.USART_ITConfig) for USART_ITConfig
    bsp_usart.o(i.USART2_Configuration) refers to stm32f10x_gpio.o(i.GPIO_Init) for GPIO_Init
    bsp_usart.o(i.USART2_Configuration) refers to stm32f10x_rcc.o(i.RCC_APB2PeriphClockCmd) for RCC_APB2PeriphClockCmd
    bsp_usart.o(i.USART2_Configuration) refers to stm32f10x_rcc.o(i.RCC_APB1PeriphClockCmd) for RCC_APB1PeriphClockCmd
    bsp_usart.o(i.USART2_Configuration) refers to stm32f10x_usart.o(i.USART_Init) for USART_Init
    bsp_usart.o(i.USART2_Configuration) refers to stm32f10x_usart.o(i.USART_ITConfig) for USART_ITConfig
    bsp_usart.o(i.USART2_Configuration) refers to stm32f10x_usart.o(i.USART_Cmd) for USART_Cmd
    bsp_usart.o(i.USART2_Configuration) refers to stm32f10x_usart.o(i.USART_ClearFlag) for USART_ClearFlag
    bsp_usart.o(i.USART2_set_IT_RXNE) refers to stm32f10x_usart.o(i.USART_ITConfig) for USART_ITConfig
    bsp_usart.o(i.USART_Configuration) refers to stm32f10x_rcc.o(i.RCC_APB2PeriphClockCmd) for RCC_APB2PeriphClockCmd
    bsp_usart.o(i.USART_Configuration) refers to stm32f10x_gpio.o(i.GPIO_Init) for GPIO_Init
    bsp_usart.o(i.USART_Configuration) refers to stm32f10x_usart.o(i.USART_Init) for USART_Init
    bsp_usart.o(i.USART_Configuration) refers to stm32f10x_usart.o(i.USART_ITConfig) for USART_ITConfig
    bsp_usart.o(i.USART_Configuration) refers to stm32f10x_usart.o(i.USART_Cmd) for USART_Cmd
    bsp_usart.o(i.USART_Configuration) refers to stm32f10x_usart.o(i.USART_ClearFlag) for USART_ClearFlag
    bsp_usart.o(i.fgetc) refers to stm32f10x_usart.o(i.USART_GetFlagStatus) for USART_GetFlagStatus
    bsp_usart.o(i.fgetc) refers to stm32f10x_usart.o(i.USART_ReceiveData) for USART_ReceiveData
    bsp_usart.o(i.fputc) refers to stm32f10x_usart.o(i.USART_SendData) for USART_SendData
    bsp_usart.o(i.fputc) refers to stm32f10x_usart.o(i.USART_GetFlagStatus) for USART_GetFlagStatus
    bsp_spi.o(i.spi_pn512_configuration) refers to stm32f10x_rcc.o(i.RCC_APB1PeriphClockCmd) for RCC_APB1PeriphClockCmd
    bsp_spi.o(i.spi_pn512_configuration) refers to stm32f10x_rcc.o(i.RCC_APB2PeriphClockCmd) for RCC_APB2PeriphClockCmd
    bsp_spi.o(i.spi_pn512_configuration) refers to stm32f10x_gpio.o(i.GPIO_Init) for GPIO_Init
    bsp_spi.o(i.spi_pn512_configuration) refers to stm32f10x_spi.o(i.SPI_Init) for SPI_Init
    bsp_spi.o(i.spi_pn512_configuration) refers to stm32f10x_spi.o(i.SPI_Cmd) for SPI_Cmd
    bsp_spi.o(i.spi_pn512_readwrite_byte) refers to stm32f10x_spi.o(i.SPI_I2S_GetFlagStatus) for SPI_I2S_GetFlagStatus
    bsp_spi.o(i.spi_pn512_readwrite_byte) refers to stm32f10x_spi.o(i.SPI_I2S_SendData) for SPI_I2S_SendData
    bsp_spi.o(i.spi_pn512_readwrite_byte) refers to stm32f10x_spi.o(i.SPI_I2S_ReceiveData) for SPI_I2S_ReceiveData
    bsp_spi.o(i.spi_pn512_set_nss) refers to stm32f10x_gpio.o(i.GPIO_WriteBit) for GPIO_WriteBit
    bsp_spi.o(i.spi_pn512_set_rst) refers to stm32f10x_gpio.o(i.GPIO_WriteBit) for GPIO_WriteBit
    bsp_spi.o(i.spi_rc531_configuration) refers to stm32f10x_rcc.o(i.RCC_APB2PeriphClockCmd) for RCC_APB2PeriphClockCmd
    bsp_spi.o(i.spi_rc531_configuration) refers to stm32f10x_gpio.o(i.GPIO_Init) for GPIO_Init
    bsp_spi.o(i.spi_rc531_configuration) refers to stm32f10x_spi.o(i.SPI_Init) for SPI_Init
    bsp_spi.o(i.spi_rc531_configuration) refers to stm32f10x_spi.o(i.SPI_Cmd) for SPI_Cmd
    bsp_spi.o(i.spi_rc531_readwrite_byte) refers to stm32f10x_spi.o(i.SPI_I2S_GetFlagStatus) for SPI_I2S_GetFlagStatus
    bsp_spi.o(i.spi_rc531_readwrite_byte) refers to stm32f10x_spi.o(i.SPI_I2S_SendData) for SPI_I2S_SendData
    bsp_spi.o(i.spi_rc531_readwrite_byte) refers to stm32f10x_spi.o(i.SPI_I2S_ReceiveData) for SPI_I2S_ReceiveData
    bsp_spi.o(i.spi_rc531_set_nss) refers to stm32f10x_gpio.o(i.GPIO_WriteBit) for GPIO_WriteBit
    bsp_spi.o(i.spi_rc531_set_rst) refers to stm32f10x_gpio.o(i.GPIO_WriteBit) for GPIO_WriteBit
    bsp_gpio.o(i.GPIO_LF125K_configuration) refers to stm32f10x_rcc.o(i.RCC_APB2PeriphClockCmd) for RCC_APB2PeriphClockCmd
    bsp_gpio.o(i.GPIO_LF125K_configuration) refers to stm32f10x_gpio.o(i.GPIO_Init) for GPIO_Init
    bsp_gpio.o(i.GPIO_Uhf_configuration) refers to stm32f10x_rcc.o(i.RCC_APB2PeriphClockCmd) for RCC_APB2PeriphClockCmd
    bsp_gpio.o(i.GPIO_Uhf_configuration) refers to stm32f10x_gpio.o(i.GPIO_Init) for GPIO_Init
    bsp_gpio.o(i.GPIO_Uhf_configuration) refers to bsp_gpio.o(i.GPIO_uhf_power_on) for GPIO_uhf_power_on
    bsp_gpio.o(i.GPIO_Uhf_configuration) refers to bsp_gpio.o(i.GPIO_uhf_cen_enable) for GPIO_uhf_cen_enable
    bsp_gpio.o(i.GPIO_read_lf125k_data) refers to stm32f10x_gpio.o(i.GPIO_ReadInputDataBit) for GPIO_ReadInputDataBit
    bsp_gpio.o(i.GPIO_set_lf125k_clk) refers to stm32f10x_gpio.o(i.GPIO_WriteBit) for GPIO_WriteBit
    bsp_gpio.o(i.GPIO_uhf_cen_disable) refers to stm32f10x_gpio.o(i.GPIO_WriteBit) for GPIO_WriteBit
    bsp_gpio.o(i.GPIO_uhf_cen_enable) refers to stm32f10x_gpio.o(i.GPIO_WriteBit) for GPIO_WriteBit
    bsp_gpio.o(i.GPIO_uhf_power_off) refers to stm32f10x_gpio.o(i.GPIO_WriteBit) for GPIO_WriteBit
    bsp_gpio.o(i.GPIO_uhf_power_on) refers to stm32f10x_gpio.o(i.GPIO_WriteBit) for GPIO_WriteBit
    bsp_gpiotest.o(i.bsp_gpiotest_configuration) refers to stm32f10x_rcc.o(i.RCC_APB2PeriphClockCmd) for RCC_APB2PeriphClockCmd
    bsp_gpiotest.o(i.bsp_gpiotest_configuration) refers to stm32f10x_gpio.o(i.GPIO_PinRemapConfig) for GPIO_PinRemapConfig
    bsp_gpiotest.o(i.bsp_gpiotest_configuration) refers to stm32f10x_gpio.o(i.GPIO_Init) for GPIO_Init
    bsp_gpiotest.o(i.bsp_gpiotest_configuration) refers to stm32f10x_gpio.o(i.GPIO_ReadInputDataBit) for GPIO_ReadInputDataBit
    bsp_gpiotest.o(i.bsp_gpiotest_configuration) refers to printfa.o(i.__0printf) for __2printf
    bsp_pwm.o(i.PWM_configuration) refers to stm32f10x_rcc.o(i.RCC_APB2PeriphClockCmd) for RCC_APB2PeriphClockCmd
    bsp_pwm.o(i.PWM_configuration) refers to stm32f10x_gpio.o(i.GPIO_Init) for GPIO_Init
    bsp_pwm.o(i.PWM_configuration) refers to stm32f10x_tim.o(i.TIM_TimeBaseInit) for TIM_TimeBaseInit
    bsp_pwm.o(i.PWM_configuration) refers to stm32f10x_tim.o(i.TIM_OC1Init) for TIM_OC1Init
    bsp_pwm.o(i.PWM_configuration) refers to stm32f10x_tim.o(i.TIM_OC1PreloadConfig) for TIM_OC1PreloadConfig
    bsp_pwm.o(i.PWM_configuration) refers to stm32f10x_tim.o(i.TIM_CtrlPWMOutputs) for TIM_CtrlPWMOutputs
    bsp_pwm.o(i.PWM_start_beep) refers to stm32f10x_tim.o(i.TIM_Cmd) for TIM_Cmd
    bsp_pwm.o(i.PWM_stop_beep) refers to stm32f10x_tim.o(i.TIM_Cmd) for TIM_Cmd
    system_stm32f10x.o(i.SystemCoreClockUpdate) refers to system_stm32f10x.o(.data) for .data
    system_stm32f10x.o(i.SystemInit) refers to system_stm32f10x.o(i.SetSysClockTo72) for SetSysClockTo72
    stm32f10x_flash.o(i.FLASH_EnableWriteProtection) refers to stm32f10x_flash.o(i.FLASH_WaitForLastOperation) for FLASH_WaitForLastOperation
    stm32f10x_flash.o(i.FLASH_EraseAllBank1Pages) refers to stm32f10x_flash.o(i.FLASH_WaitForLastBank1Operation) for FLASH_WaitForLastBank1Operation
    stm32f10x_flash.o(i.FLASH_EraseAllPages) refers to stm32f10x_flash.o(i.FLASH_WaitForLastOperation) for FLASH_WaitForLastOperation
    stm32f10x_flash.o(i.FLASH_EraseOptionBytes) refers to stm32f10x_flash.o(i.FLASH_GetReadOutProtectionStatus) for FLASH_GetReadOutProtectionStatus
    stm32f10x_flash.o(i.FLASH_EraseOptionBytes) refers to stm32f10x_flash.o(i.FLASH_WaitForLastOperation) for FLASH_WaitForLastOperation
    stm32f10x_flash.o(i.FLASH_ErasePage) refers to stm32f10x_flash.o(i.FLASH_WaitForLastOperation) for FLASH_WaitForLastOperation
    stm32f10x_flash.o(i.FLASH_ProgramHalfWord) refers to stm32f10x_flash.o(i.FLASH_WaitForLastOperation) for FLASH_WaitForLastOperation
    stm32f10x_flash.o(i.FLASH_ProgramOptionByteData) refers to stm32f10x_flash.o(i.FLASH_WaitForLastOperation) for FLASH_WaitForLastOperation
    stm32f10x_flash.o(i.FLASH_ProgramWord) refers to stm32f10x_flash.o(i.FLASH_WaitForLastOperation) for FLASH_WaitForLastOperation
    stm32f10x_flash.o(i.FLASH_ReadOutProtection) refers to stm32f10x_flash.o(i.FLASH_WaitForLastOperation) for FLASH_WaitForLastOperation
    stm32f10x_flash.o(i.FLASH_UserOptionByteConfig) refers to stm32f10x_flash.o(i.FLASH_WaitForLastOperation) for FLASH_WaitForLastOperation
    stm32f10x_flash.o(i.FLASH_WaitForLastBank1Operation) refers to stm32f10x_flash.o(i.FLASH_GetBank1Status) for FLASH_GetBank1Status
    stm32f10x_flash.o(i.FLASH_WaitForLastOperation) refers to stm32f10x_flash.o(i.FLASH_GetBank1Status) for FLASH_GetBank1Status
    stm32f10x_gpio.o(i.GPIO_AFIODeInit) refers to stm32f10x_rcc.o(i.RCC_APB2PeriphResetCmd) for RCC_APB2PeriphResetCmd
    stm32f10x_gpio.o(i.GPIO_DeInit) refers to stm32f10x_rcc.o(i.RCC_APB2PeriphResetCmd) for RCC_APB2PeriphResetCmd
    stm32f10x_rcc.o(i.RCC_GetClocksFreq) refers to stm32f10x_rcc.o(.data) for .data
    stm32f10x_rcc.o(i.RCC_WaitForHSEStartUp) refers to stm32f10x_rcc.o(i.RCC_GetFlagStatus) for RCC_GetFlagStatus
    stm32f10x_usart.o(i.USART_DeInit) refers to stm32f10x_rcc.o(i.RCC_APB2PeriphResetCmd) for RCC_APB2PeriphResetCmd
    stm32f10x_usart.o(i.USART_DeInit) refers to stm32f10x_rcc.o(i.RCC_APB1PeriphResetCmd) for RCC_APB1PeriphResetCmd
    stm32f10x_usart.o(i.USART_Init) refers to stm32f10x_rcc.o(i.RCC_GetClocksFreq) for RCC_GetClocksFreq
    stm32f10x_spi.o(i.I2S_Init) refers to stm32f10x_rcc.o(i.RCC_GetClocksFreq) for RCC_GetClocksFreq
    stm32f10x_spi.o(i.SPI_I2S_DeInit) refers to stm32f10x_rcc.o(i.RCC_APB2PeriphResetCmd) for RCC_APB2PeriphResetCmd
    stm32f10x_spi.o(i.SPI_I2S_DeInit) refers to stm32f10x_rcc.o(i.RCC_APB1PeriphResetCmd) for RCC_APB1PeriphResetCmd
    stm32f10x_tim.o(i.TIM_DeInit) refers to stm32f10x_rcc.o(i.RCC_APB1PeriphResetCmd) for RCC_APB1PeriphResetCmd
    stm32f10x_tim.o(i.TIM_DeInit) refers to stm32f10x_rcc.o(i.RCC_APB2PeriphResetCmd) for RCC_APB2PeriphResetCmd
    stm32f10x_tim.o(i.TIM_ETRClockMode1Config) refers to stm32f10x_tim.o(i.TIM_ETRConfig) for TIM_ETRConfig
    stm32f10x_tim.o(i.TIM_ETRClockMode2Config) refers to stm32f10x_tim.o(i.TIM_ETRConfig) for TIM_ETRConfig
    stm32f10x_tim.o(i.TIM_ICInit) refers to stm32f10x_tim.o(i.TI1_Config) for TI1_Config
    stm32f10x_tim.o(i.TIM_ICInit) refers to stm32f10x_tim.o(i.TIM_SetIC1Prescaler) for TIM_SetIC1Prescaler
    stm32f10x_tim.o(i.TIM_ICInit) refers to stm32f10x_tim.o(i.TI2_Config) for TI2_Config
    stm32f10x_tim.o(i.TIM_ICInit) refers to stm32f10x_tim.o(i.TIM_SetIC2Prescaler) for TIM_SetIC2Prescaler
    stm32f10x_tim.o(i.TIM_ICInit) refers to stm32f10x_tim.o(i.TIM_SetIC3Prescaler) for TIM_SetIC3Prescaler
    stm32f10x_tim.o(i.TIM_ICInit) refers to stm32f10x_tim.o(i.TIM_SetIC4Prescaler) for TIM_SetIC4Prescaler
    stm32f10x_tim.o(i.TIM_ITRxExternalClockConfig) refers to stm32f10x_tim.o(i.TIM_SelectInputTrigger) for TIM_SelectInputTrigger
    stm32f10x_tim.o(i.TIM_PWMIConfig) refers to stm32f10x_tim.o(i.TI2_Config) for TI2_Config
    stm32f10x_tim.o(i.TIM_PWMIConfig) refers to stm32f10x_tim.o(i.TIM_SetIC2Prescaler) for TIM_SetIC2Prescaler
    stm32f10x_tim.o(i.TIM_PWMIConfig) refers to stm32f10x_tim.o(i.TI1_Config) for TI1_Config
    stm32f10x_tim.o(i.TIM_PWMIConfig) refers to stm32f10x_tim.o(i.TIM_SetIC1Prescaler) for TIM_SetIC1Prescaler
    stm32f10x_tim.o(i.TIM_TIxExternalClockConfig) refers to stm32f10x_tim.o(i.TI1_Config) for TI1_Config
    stm32f10x_tim.o(i.TIM_TIxExternalClockConfig) refers to stm32f10x_tim.o(i.TIM_SelectInputTrigger) for TIM_SelectInputTrigger
    stm32f10x_tim.o(i.TIM_TIxExternalClockConfig) refers to stm32f10x_tim.o(i.TI2_Config) for TI2_Config
    startup_stm32f10x_hd.o(RESET) refers to startup_stm32f10x_hd.o(STACK) for __initial_sp
    startup_stm32f10x_hd.o(RESET) refers to startup_stm32f10x_hd.o(.text) for Reset_Handler
    startup_stm32f10x_hd.o(RESET) refers to stm32f10x_it.o(i.NMI_Handler) for NMI_Handler
    startup_stm32f10x_hd.o(RESET) refers to stm32f10x_it.o(i.HardFault_Handler) for HardFault_Handler
    startup_stm32f10x_hd.o(RESET) refers to stm32f10x_it.o(i.MemManage_Handler) for MemManage_Handler
    startup_stm32f10x_hd.o(RESET) refers to stm32f10x_it.o(i.BusFault_Handler) for BusFault_Handler
    startup_stm32f10x_hd.o(RESET) refers to stm32f10x_it.o(i.UsageFault_Handler) for UsageFault_Handler
    startup_stm32f10x_hd.o(RESET) refers to stm32f10x_it.o(i.SVC_Handler) for SVC_Handler
    startup_stm32f10x_hd.o(RESET) refers to stm32f10x_it.o(i.DebugMon_Handler) for DebugMon_Handler
    startup_stm32f10x_hd.o(RESET) refers to stm32f10x_it.o(i.PendSV_Handler) for PendSV_Handler
    startup_stm32f10x_hd.o(RESET) refers to stm32f10x_it.o(i.SysTick_Handler) for SysTick_Handler
    startup_stm32f10x_hd.o(RESET) refers to pn512.o(i.EXTI0_IRQHandler) for EXTI0_IRQHandler
    startup_stm32f10x_hd.o(RESET) refers to stm32f10x_it.o(i.EXTI9_5_IRQHandler) for EXTI9_5_IRQHandler
    startup_stm32f10x_hd.o(RESET) refers to stm32f10x_it.o(i.USART1_IRQHandler) for USART1_IRQHandler
    startup_stm32f10x_hd.o(RESET) refers to stm32f10x_it.o(i.USART2_IRQHandler) for USART2_IRQHandler
    startup_stm32f10x_hd.o(RESET) refers to stm32f10x_it.o(i.USART3_IRQHandler) for USART3_IRQHandler
    startup_stm32f10x_hd.o(RESET) refers to stm32f10x_it.o(i.EXTI15_10_IRQHandler) for EXTI15_10_IRQHandler
    startup_stm32f10x_hd.o(RESET) refers to stm32f10x_it.o(i.UART4_IRQHandler) for UART4_IRQHandler
    startup_stm32f10x_hd.o(.text) refers to system_stm32f10x.o(i.SystemInit) for SystemInit
    startup_stm32f10x_hd.o(.text) refers to entry.o(.ARM.Collect$$$$00000000) for __main
    entry.o(.ARM.Collect$$$$00000000) refers (Special) to entry10a.o(.ARM.Collect$$$$0000000D) for __rt_final_cpp
    entry.o(.ARM.Collect$$$$00000000) refers (Special) to entry11a.o(.ARM.Collect$$$$0000000F) for __rt_final_exit
    entry.o(.ARM.Collect$$$$00000000) refers (Special) to entry7b.o(.ARM.Collect$$$$00000008) for _main_clock
    entry.o(.ARM.Collect$$$$00000000) refers (Special) to entry8b.o(.ARM.Collect$$$$0000000A) for _main_cpp_init
    entry.o(.ARM.Collect$$$$00000000) refers (Special) to entry9a.o(.ARM.Collect$$$$0000000B) for _main_init
    entry.o(.ARM.Collect$$$$00000000) refers (Special) to entry5.o(.ARM.Collect$$$$00000004) for _main_scatterload
    entry.o(.ARM.Collect$$$$00000000) refers (Special) to entry2.o(.ARM.Collect$$$$00000001) for _main_stk
    perror.o(i.perror) refers to fputs.o(i.fputs) for fputs
    perror.o(i.perror) refers to errno.o(i.__aeabi_errno_addr) for __aeabi_errno_addr
    perror.o(i.perror) refers to strerror.o(.text) for strerror
    perror.o(i.perror) refers to stderr.o(.data) for __stderr
    printfb.o(i.__0fprintf$bare) refers to printfb.o(i._printf_core) for _printf_core
    printfb.o(i.__0fprintf$bare) refers to bsp_usart.o(i.fputc) for fputc
    printfb.o(i.__0printf$bare) refers to printfb.o(i._printf_core) for _printf_core
    printfb.o(i.__0printf$bare) refers to bsp_usart.o(i.fputc) for fputc
    printfb.o(i.__0printf$bare) refers to stdout.o(.data) for __stdout
    printfb.o(i.__0snprintf$bare) refers to printfb.o(i._printf_core) for _printf_core
    printfb.o(i.__0snprintf$bare) refers to printfb.o(i._snputc) for _snputc
    printfb.o(i.__0sprintf$bare) refers to printfb.o(i._printf_core) for _printf_core
    printfb.o(i.__0sprintf$bare) refers to printfb.o(i._sputc) for _sputc
    printfb.o(i.__0vfprintf$bare) refers to printfb.o(i._printf_core) for _printf_core
    printfb.o(i.__0vfprintf$bare) refers to bsp_usart.o(i.fputc) for fputc
    printfb.o(i.__0vprintf$bare) refers to printfb.o(i._printf_core) for _printf_core
    printfb.o(i.__0vprintf$bare) refers to bsp_usart.o(i.fputc) for fputc
    printfb.o(i.__0vprintf$bare) refers to stdout.o(.data) for __stdout
    printfb.o(i.__0vsnprintf$bare) refers to printfb.o(i._printf_core) for _printf_core
    printfb.o(i.__0vsnprintf$bare) refers to printfb.o(i._snputc) for _snputc
    printfb.o(i.__0vsprintf$bare) refers to printfb.o(i._printf_core) for _printf_core
    printfb.o(i.__0vsprintf$bare) refers to printfb.o(i._sputc) for _sputc
    printf0.o(i.__0fprintf$0) refers to printf0.o(i._printf_core) for _printf_core
    printf0.o(i.__0fprintf$0) refers to bsp_usart.o(i.fputc) for fputc
    printf0.o(i.__0printf$0) refers to printf0.o(i._printf_core) for _printf_core
    printf0.o(i.__0printf$0) refers to bsp_usart.o(i.fputc) for fputc
    printf0.o(i.__0printf$0) refers to stdout.o(.data) for __stdout
    printf0.o(i.__0snprintf$0) refers to printf0.o(i._printf_core) for _printf_core
    printf0.o(i.__0snprintf$0) refers to printf0.o(i._snputc) for _snputc
    printf0.o(i.__0sprintf$0) refers to printf0.o(i._printf_core) for _printf_core
    printf0.o(i.__0sprintf$0) refers to printf0.o(i._sputc) for _sputc
    printf0.o(i.__0vfprintf$0) refers to printf0.o(i._printf_core) for _printf_core
    printf0.o(i.__0vfprintf$0) refers to bsp_usart.o(i.fputc) for fputc
    printf0.o(i.__0vprintf$0) refers to printf0.o(i._printf_core) for _printf_core
    printf0.o(i.__0vprintf$0) refers to bsp_usart.o(i.fputc) for fputc
    printf0.o(i.__0vprintf$0) refers to stdout.o(.data) for __stdout
    printf0.o(i.__0vsnprintf$0) refers to printf0.o(i._printf_core) for _printf_core
    printf0.o(i.__0vsnprintf$0) refers to printf0.o(i._snputc) for _snputc
    printf0.o(i.__0vsprintf$0) refers to printf0.o(i._printf_core) for _printf_core
    printf0.o(i.__0vsprintf$0) refers to printf0.o(i._sputc) for _sputc
    printf1.o(i.__0fprintf$1) refers to printf1.o(i._printf_core) for _printf_core
    printf1.o(i.__0fprintf$1) refers to bsp_usart.o(i.fputc) for fputc
    printf1.o(i.__0printf$1) refers to printf1.o(i._printf_core) for _printf_core
    printf1.o(i.__0printf$1) refers to bsp_usart.o(i.fputc) for fputc
    printf1.o(i.__0printf$1) refers to stdout.o(.data) for __stdout
    printf1.o(i.__0snprintf$1) refers to printf1.o(i._printf_core) for _printf_core
    printf1.o(i.__0snprintf$1) refers to printf1.o(i._snputc) for _snputc
    printf1.o(i.__0sprintf$1) refers to printf1.o(i._printf_core) for _printf_core
    printf1.o(i.__0sprintf$1) refers to printf1.o(i._sputc) for _sputc
    printf1.o(i.__0vfprintf$1) refers to printf1.o(i._printf_core) for _printf_core
    printf1.o(i.__0vfprintf$1) refers to bsp_usart.o(i.fputc) for fputc
    printf1.o(i.__0vprintf$1) refers to printf1.o(i._printf_core) for _printf_core
    printf1.o(i.__0vprintf$1) refers to bsp_usart.o(i.fputc) for fputc
    printf1.o(i.__0vprintf$1) refers to stdout.o(.data) for __stdout
    printf1.o(i.__0vsnprintf$1) refers to printf1.o(i._printf_core) for _printf_core
    printf1.o(i.__0vsnprintf$1) refers to printf1.o(i._snputc) for _snputc
    printf1.o(i.__0vsprintf$1) refers to printf1.o(i._printf_core) for _printf_core
    printf1.o(i.__0vsprintf$1) refers to printf1.o(i._sputc) for _sputc
    printf1.o(i._printf_core) refers to uidiv.o(.text) for __aeabi_uidivmod
    printf2.o(i.__0fprintf$2) refers to printf2.o(i._printf_core) for _printf_core
    printf2.o(i.__0fprintf$2) refers to bsp_usart.o(i.fputc) for fputc
    printf2.o(i.__0printf$2) refers to printf2.o(i._printf_core) for _printf_core
    printf2.o(i.__0printf$2) refers to bsp_usart.o(i.fputc) for fputc
    printf2.o(i.__0printf$2) refers to stdout.o(.data) for __stdout
    printf2.o(i.__0snprintf$2) refers to printf2.o(i._printf_core) for _printf_core
    printf2.o(i.__0snprintf$2) refers to printf2.o(i._snputc) for _snputc
    printf2.o(i.__0sprintf$2) refers to printf2.o(i._printf_core) for _printf_core
    printf2.o(i.__0sprintf$2) refers to printf2.o(i._sputc) for _sputc
    printf2.o(i.__0vfprintf$2) refers to printf2.o(i._printf_core) for _printf_core
    printf2.o(i.__0vfprintf$2) refers to bsp_usart.o(i.fputc) for fputc
    printf2.o(i.__0vprintf$2) refers to printf2.o(i._printf_core) for _printf_core
    printf2.o(i.__0vprintf$2) refers to bsp_usart.o(i.fputc) for fputc
    printf2.o(i.__0vprintf$2) refers to stdout.o(.data) for __stdout
    printf2.o(i.__0vsnprintf$2) refers to printf2.o(i._printf_core) for _printf_core
    printf2.o(i.__0vsnprintf$2) refers to printf2.o(i._snputc) for _snputc
    printf2.o(i.__0vsprintf$2) refers to printf2.o(i._printf_core) for _printf_core
    printf2.o(i.__0vsprintf$2) refers to printf2.o(i._sputc) for _sputc
    printf3.o(i.__0fprintf$3) refers to printf3.o(i._printf_core) for _printf_core
    printf3.o(i.__0fprintf$3) refers to bsp_usart.o(i.fputc) for fputc
    printf3.o(i.__0printf$3) refers to printf3.o(i._printf_core) for _printf_core
    printf3.o(i.__0printf$3) refers to bsp_usart.o(i.fputc) for fputc
    printf3.o(i.__0printf$3) refers to stdout.o(.data) for __stdout
    printf3.o(i.__0snprintf$3) refers to printf3.o(i._printf_core) for _printf_core
    printf3.o(i.__0snprintf$3) refers to printf3.o(i._snputc) for _snputc
    printf3.o(i.__0sprintf$3) refers to printf3.o(i._printf_core) for _printf_core
    printf3.o(i.__0sprintf$3) refers to printf3.o(i._sputc) for _sputc
    printf3.o(i.__0vfprintf$3) refers to printf3.o(i._printf_core) for _printf_core
    printf3.o(i.__0vfprintf$3) refers to bsp_usart.o(i.fputc) for fputc
    printf3.o(i.__0vprintf$3) refers to printf3.o(i._printf_core) for _printf_core
    printf3.o(i.__0vprintf$3) refers to bsp_usart.o(i.fputc) for fputc
    printf3.o(i.__0vprintf$3) refers to stdout.o(.data) for __stdout
    printf3.o(i.__0vsnprintf$3) refers to printf3.o(i._printf_core) for _printf_core
    printf3.o(i.__0vsnprintf$3) refers to printf3.o(i._snputc) for _snputc
    printf3.o(i.__0vsprintf$3) refers to printf3.o(i._printf_core) for _printf_core
    printf3.o(i.__0vsprintf$3) refers to printf3.o(i._sputc) for _sputc
    printf3.o(i._printf_core) refers to uidiv.o(.text) for __aeabi_uidivmod
    printf4.o(i.__0fprintf$4) refers to printf4.o(i._printf_core) for _printf_core
    printf4.o(i.__0fprintf$4) refers to bsp_usart.o(i.fputc) for fputc
    printf4.o(i.__0printf$4) refers to printf4.o(i._printf_core) for _printf_core
    printf4.o(i.__0printf$4) refers to bsp_usart.o(i.fputc) for fputc
    printf4.o(i.__0printf$4) refers to stdout.o(.data) for __stdout
    printf4.o(i.__0snprintf$4) refers to printf4.o(i._printf_core) for _printf_core
    printf4.o(i.__0snprintf$4) refers to printf4.o(i._snputc) for _snputc
    printf4.o(i.__0sprintf$4) refers to printf4.o(i._printf_core) for _printf_core
    printf4.o(i.__0sprintf$4) refers to printf4.o(i._sputc) for _sputc
    printf4.o(i.__0vfprintf$4) refers to printf4.o(i._printf_core) for _printf_core
    printf4.o(i.__0vfprintf$4) refers to bsp_usart.o(i.fputc) for fputc
    printf4.o(i.__0vprintf$4) refers to printf4.o(i._printf_core) for _printf_core
    printf4.o(i.__0vprintf$4) refers to bsp_usart.o(i.fputc) for fputc
    printf4.o(i.__0vprintf$4) refers to stdout.o(.data) for __stdout
    printf4.o(i.__0vsnprintf$4) refers to printf4.o(i._printf_core) for _printf_core
    printf4.o(i.__0vsnprintf$4) refers to printf4.o(i._snputc) for _snputc
    printf4.o(i.__0vsprintf$4) refers to printf4.o(i._printf_core) for _printf_core
    printf4.o(i.__0vsprintf$4) refers to printf4.o(i._sputc) for _sputc
    printf4.o(i._printf_core) refers to uldiv.o(.text) for __aeabi_uldivmod
    printf5.o(i.__0fprintf$5) refers to printf5.o(i._printf_core) for _printf_core
    printf5.o(i.__0fprintf$5) refers to bsp_usart.o(i.fputc) for fputc
    printf5.o(i.__0printf$5) refers to printf5.o(i._printf_core) for _printf_core
    printf5.o(i.__0printf$5) refers to bsp_usart.o(i.fputc) for fputc
    printf5.o(i.__0printf$5) refers to stdout.o(.data) for __stdout
    printf5.o(i.__0snprintf$5) refers to printf5.o(i._printf_core) for _printf_core
    printf5.o(i.__0snprintf$5) refers to printf5.o(i._snputc) for _snputc
    printf5.o(i.__0sprintf$5) refers to printf5.o(i._printf_core) for _printf_core
    printf5.o(i.__0sprintf$5) refers to printf5.o(i._sputc) for _sputc
    printf5.o(i.__0vfprintf$5) refers to printf5.o(i._printf_core) for _printf_core
    printf5.o(i.__0vfprintf$5) refers to bsp_usart.o(i.fputc) for fputc
    printf5.o(i.__0vprintf$5) refers to printf5.o(i._printf_core) for _printf_core
    printf5.o(i.__0vprintf$5) refers to bsp_usart.o(i.fputc) for fputc
    printf5.o(i.__0vprintf$5) refers to stdout.o(.data) for __stdout
    printf5.o(i.__0vsnprintf$5) refers to printf5.o(i._printf_core) for _printf_core
    printf5.o(i.__0vsnprintf$5) refers to printf5.o(i._snputc) for _snputc
    printf5.o(i.__0vsprintf$5) refers to printf5.o(i._printf_core) for _printf_core
    printf5.o(i.__0vsprintf$5) refers to printf5.o(i._sputc) for _sputc
    printf5.o(i._printf_core) refers to uldiv.o(.text) for __aeabi_uldivmod
    printf6.o(i.__0fprintf$6) refers to printf6.o(i._printf_core) for _printf_core
    printf6.o(i.__0fprintf$6) refers to bsp_usart.o(i.fputc) for fputc
    printf6.o(i.__0printf$6) refers to printf6.o(i._printf_core) for _printf_core
    printf6.o(i.__0printf$6) refers to bsp_usart.o(i.fputc) for fputc
    printf6.o(i.__0printf$6) refers to stdout.o(.data) for __stdout
    printf6.o(i.__0snprintf$6) refers to printf6.o(i._printf_core) for _printf_core
    printf6.o(i.__0snprintf$6) refers to printf6.o(i._snputc) for _snputc
    printf6.o(i.__0sprintf$6) refers to printf6.o(i._printf_core) for _printf_core
    printf6.o(i.__0sprintf$6) refers to printf6.o(i._sputc) for _sputc
    printf6.o(i.__0vfprintf$6) refers to printf6.o(i._printf_core) for _printf_core
    printf6.o(i.__0vfprintf$6) refers to bsp_usart.o(i.fputc) for fputc
    printf6.o(i.__0vprintf$6) refers to printf6.o(i._printf_core) for _printf_core
    printf6.o(i.__0vprintf$6) refers to bsp_usart.o(i.fputc) for fputc
    printf6.o(i.__0vprintf$6) refers to stdout.o(.data) for __stdout
    printf6.o(i.__0vsnprintf$6) refers to printf6.o(i._printf_core) for _printf_core
    printf6.o(i.__0vsnprintf$6) refers to printf6.o(i._snputc) for _snputc
    printf6.o(i.__0vsprintf$6) refers to printf6.o(i._printf_core) for _printf_core
    printf6.o(i.__0vsprintf$6) refers to printf6.o(i._sputc) for _sputc
    printf6.o(i._printf_core) refers to printf6.o(i._printf_pre_padding) for _printf_pre_padding
    printf6.o(i._printf_core) refers to uidiv.o(.text) for __aeabi_uidivmod
    printf6.o(i._printf_core) refers to printf6.o(i._printf_post_padding) for _printf_post_padding
    printf7.o(i.__0fprintf$7) refers to printf7.o(i._printf_core) for _printf_core
    printf7.o(i.__0fprintf$7) refers to bsp_usart.o(i.fputc) for fputc
    printf7.o(i.__0printf$7) refers to printf7.o(i._printf_core) for _printf_core
    printf7.o(i.__0printf$7) refers to bsp_usart.o(i.fputc) for fputc
    printf7.o(i.__0printf$7) refers to stdout.o(.data) for __stdout
    printf7.o(i.__0snprintf$7) refers to printf7.o(i._printf_core) for _printf_core
    printf7.o(i.__0snprintf$7) refers to printf7.o(i._snputc) for _snputc
    printf7.o(i.__0sprintf$7) refers to printf7.o(i._printf_core) for _printf_core
    printf7.o(i.__0sprintf$7) refers to printf7.o(i._sputc) for _sputc
    printf7.o(i.__0vfprintf$7) refers to printf7.o(i._printf_core) for _printf_core
    printf7.o(i.__0vfprintf$7) refers to bsp_usart.o(i.fputc) for fputc
    printf7.o(i.__0vprintf$7) refers to printf7.o(i._printf_core) for _printf_core
    printf7.o(i.__0vprintf$7) refers to bsp_usart.o(i.fputc) for fputc
    printf7.o(i.__0vprintf$7) refers to stdout.o(.data) for __stdout
    printf7.o(i.__0vsnprintf$7) refers to printf7.o(i._printf_core) for _printf_core
    printf7.o(i.__0vsnprintf$7) refers to printf7.o(i._snputc) for _snputc
    printf7.o(i.__0vsprintf$7) refers to printf7.o(i._printf_core) for _printf_core
    printf7.o(i.__0vsprintf$7) refers to printf7.o(i._sputc) for _sputc
    printf7.o(i._printf_core) refers to printf7.o(i._printf_pre_padding) for _printf_pre_padding
    printf7.o(i._printf_core) refers to uldiv.o(.text) for __aeabi_uldivmod
    printf7.o(i._printf_core) refers to printf7.o(i._printf_post_padding) for _printf_post_padding
    printf8.o(i.__0fprintf$8) refers to printf8.o(i._printf_core) for _printf_core
    printf8.o(i.__0fprintf$8) refers to bsp_usart.o(i.fputc) for fputc
    printf8.o(i.__0printf$8) refers to printf8.o(i._printf_core) for _printf_core
    printf8.o(i.__0printf$8) refers to bsp_usart.o(i.fputc) for fputc
    printf8.o(i.__0printf$8) refers to stdout.o(.data) for __stdout
    printf8.o(i.__0snprintf$8) refers to printf8.o(i._printf_core) for _printf_core
    printf8.o(i.__0snprintf$8) refers to printf8.o(i._snputc) for _snputc
    printf8.o(i.__0sprintf$8) refers to printf8.o(i._printf_core) for _printf_core
    printf8.o(i.__0sprintf$8) refers to printf8.o(i._sputc) for _sputc
    printf8.o(i.__0vfprintf$8) refers to printf8.o(i._printf_core) for _printf_core
    printf8.o(i.__0vfprintf$8) refers to bsp_usart.o(i.fputc) for fputc
    printf8.o(i.__0vprintf$8) refers to printf8.o(i._printf_core) for _printf_core
    printf8.o(i.__0vprintf$8) refers to bsp_usart.o(i.fputc) for fputc
    printf8.o(i.__0vprintf$8) refers to stdout.o(.data) for __stdout
    printf8.o(i.__0vsnprintf$8) refers to printf8.o(i._printf_core) for _printf_core
    printf8.o(i.__0vsnprintf$8) refers to printf8.o(i._snputc) for _snputc
    printf8.o(i.__0vsprintf$8) refers to printf8.o(i._printf_core) for _printf_core
    printf8.o(i.__0vsprintf$8) refers to printf8.o(i._sputc) for _sputc
    printf8.o(i._printf_core) refers to printf8.o(i._printf_pre_padding) for _printf_pre_padding
    printf8.o(i._printf_core) refers to uldiv.o(.text) for __aeabi_uldivmod
    printf8.o(i._printf_core) refers to printf8.o(i._printf_post_padding) for _printf_post_padding
    printfa.o(i.__0fprintf) refers (Special) to iusefp.o(.text) for __I$use$fp
    printfa.o(i.__0fprintf) refers to printfa.o(i._printf_core) for _printf_core
    printfa.o(i.__0fprintf) refers to bsp_usart.o(i.fputc) for fputc
    printfa.o(i.__0printf) refers (Special) to iusefp.o(.text) for __I$use$fp
    printfa.o(i.__0printf) refers to printfa.o(i._printf_core) for _printf_core
    printfa.o(i.__0printf) refers to bsp_usart.o(i.fputc) for fputc
    printfa.o(i.__0printf) refers to stdout.o(.data) for __stdout
    printfa.o(i.__0snprintf) refers (Special) to iusefp.o(.text) for __I$use$fp
    printfa.o(i.__0snprintf) refers to printfa.o(i._printf_core) for _printf_core
    printfa.o(i.__0snprintf) refers to printfa.o(i._snputc) for _snputc
    printfa.o(i.__0sprintf) refers (Special) to iusefp.o(.text) for __I$use$fp
    printfa.o(i.__0sprintf) refers to printfa.o(i._printf_core) for _printf_core
    printfa.o(i.__0sprintf) refers to printfa.o(i._sputc) for _sputc
    printfa.o(i.__0vfprintf) refers (Special) to iusefp.o(.text) for __I$use$fp
    printfa.o(i.__0vfprintf) refers to printfa.o(i._printf_core) for _printf_core
    printfa.o(i.__0vfprintf) refers to bsp_usart.o(i.fputc) for fputc
    printfa.o(i.__0vprintf) refers (Special) to iusefp.o(.text) for __I$use$fp
    printfa.o(i.__0vprintf) refers to printfa.o(i._printf_core) for _printf_core
    printfa.o(i.__0vprintf) refers to bsp_usart.o(i.fputc) for fputc
    printfa.o(i.__0vprintf) refers to stdout.o(.data) for __stdout
    printfa.o(i.__0vsnprintf) refers (Special) to iusefp.o(.text) for __I$use$fp
    printfa.o(i.__0vsnprintf) refers to printfa.o(i._printf_core) for _printf_core
    printfa.o(i.__0vsnprintf) refers to printfa.o(i._snputc) for _snputc
    printfa.o(i.__0vsprintf) refers (Special) to iusefp.o(.text) for __I$use$fp
    printfa.o(i.__0vsprintf) refers to printfa.o(i._printf_core) for _printf_core
    printfa.o(i.__0vsprintf) refers to printfa.o(i._sputc) for _sputc
    printfa.o(i._fp_digits) refers (Special) to iusefp.o(.text) for __I$use$fp
    printfa.o(i._fp_digits) refers to dmul.o(.text) for __aeabi_dmul
    printfa.o(i._fp_digits) refers to ddiv.o(.text) for __aeabi_ddiv
    printfa.o(i._fp_digits) refers to cdrcmple.o(.text) for __aeabi_cdrcmple
    printfa.o(i._fp_digits) refers to dadd.o(.text) for __aeabi_dadd
    printfa.o(i._fp_digits) refers to dfixul.o(.text) for __aeabi_d2ulz
    printfa.o(i._fp_digits) refers to uldiv.o(.text) for __aeabi_uldivmod
    printfa.o(i._printf_core) refers (Special) to iusefp.o(.text) for __I$use$fp
    printfa.o(i._printf_core) refers to printfa.o(i._printf_pre_padding) for _printf_pre_padding
    printfa.o(i._printf_core) refers to uldiv.o(.text) for __aeabi_uldivmod
    printfa.o(i._printf_core) refers to printfa.o(i._printf_post_padding) for _printf_post_padding
    printfa.o(i._printf_core) refers to printfa.o(i._fp_digits) for _fp_digits
    printfa.o(i._printf_core) refers to uidiv.o(.text) for __aeabi_uidivmod
    printfa.o(i._printf_post_padding) refers (Special) to iusefp.o(.text) for __I$use$fp
    printfa.o(i._printf_pre_padding) refers (Special) to iusefp.o(.text) for __I$use$fp
    printfa.o(i._snputc) refers (Special) to iusefp.o(.text) for __I$use$fp
    printfa.o(i._sputc) refers (Special) to iusefp.o(.text) for __I$use$fp
    malloc.o(i.free) refers to mvars.o(.data) for __microlib_freelist
    malloc.o(i.malloc) refers to mvars.o(.data) for __microlib_freelist_initialised
    malloc.o(i.malloc) refers to mvars.o(.data) for __microlib_freelist
    malloc.o(i.malloc) refers to startup_stm32f10x_hd.o(HEAP) for __heap_base
    mallocr.o(i.__free$realloc) refers to mvars.o(.data) for __microlib_freelist
    mallocr.o(i.__malloc$realloc) refers to mallocr.o(i.internal_alloc) for internal_alloc
    mallocr.o(i.__malloc$realloc) refers to mvars.o(.data) for __microlib_freelist_initialised
    mallocr.o(i.__malloc$realloc) refers to startup_stm32f10x_hd.o(HEAP) for __heap_base
    mallocr.o(i.__malloc$realloc) refers to mvars.o(.data) for __microlib_freelist
    mallocr.o(i.internal_alloc) refers to memcpya.o(.text) for __aeabi_memcpy
    mallocr.o(i.internal_alloc) refers to mvars.o(.data) for __microlib_freelist
    mallocr.o(i.realloc) refers to mallocr.o(i.__free$realloc) for __free$realloc
    mallocr.o(i.realloc) refers to mallocr.o(i.internal_alloc) for internal_alloc
    mallocr.o(i.realloc) refers to mallocr.o(i.__malloc$realloc) for __malloc$realloc
    mallocr.o(i.realloc) refers to mvars.o(.data) for __microlib_freelist
    malloca.o(i.__aligned_malloc) refers to mvars.o(.data) for __microlib_freelist_initialised
    malloca.o(i.__aligned_malloc) refers to mvars.o(.data) for __microlib_freelist
    malloca.o(i.__aligned_malloc) refers to startup_stm32f10x_hd.o(HEAP) for __heap_base
    malloca.o(i.__free$memalign) refers to mvars.o(.data) for __microlib_freelist
    malloca.o(i.__malloc$memalign) refers to malloca.o(i.__aligned_malloc) for __aligned_malloc
    mallocra.o(i.__aligned_malloc$realloc) refers to mallocra.o(i.internal_alloc) for internal_alloc
    mallocra.o(i.__aligned_malloc$realloc) refers to mvars.o(.data) for __microlib_freelist_initialised
    mallocra.o(i.__aligned_malloc$realloc) refers to startup_stm32f10x_hd.o(HEAP) for __heap_base
    mallocra.o(i.__aligned_malloc$realloc) refers to mvars.o(.data) for __microlib_freelist
    mallocra.o(i.__free$realloc$memalign) refers to mvars.o(.data) for __microlib_freelist
    mallocra.o(i.__malloc$realloc$memalign) refers to mallocra.o(i.__aligned_malloc$realloc) for __aligned_malloc$realloc
    mallocra.o(i.__realloc$memalign) refers to mallocra.o(i.__free$realloc$memalign) for __free$realloc$memalign
    mallocra.o(i.__realloc$memalign) refers to mallocra.o(i.internal_alloc) for internal_alloc
    mallocra.o(i.__realloc$memalign) refers to mallocra.o(i.__malloc$realloc$memalign) for __malloc$realloc$memalign
    mallocra.o(i.__realloc$memalign) refers to mvars.o(.data) for __microlib_freelist
    mallocra.o(i.internal_alloc) refers to memcpya.o(.text) for __aeabi_memcpy
    mallocra.o(i.internal_alloc) refers to mvars.o(.data) for __microlib_freelist
    sscanf.o(.text) refers (Special) to _scanf_int.o(.text) for _scanf_int
    sscanf.o(.text) refers (Special) to _scanf_longlong.o(.text) for _scanf_longlong
    sscanf.o(.text) refers (Special) to scanf_fp.o(.text) for _scanf_real
    sscanf.o(.text) refers (Special) to _scanf_str.o(.text) for _scanf_string
    sscanf.o(.text) refers to scanf_char.o(.text) for __vfscanf_char
    sscanf.o(.text) refers to _sgetc.o(.text) for _sgetc
    ddiv.o(.text) refers (Special) to iusefp.o(.text) for __I$use$fp
    ddiv.o(.text) refers to depilogue.o(.text) for _double_round
    dscalb.o(.text) refers (Special) to iusefp.o(.text) for __I$use$fp
    dflti.o(.text) refers (Special) to iusefp.o(.text) for __I$use$fp
    dflti.o(.text) refers to depilogue.o(.text) for _double_epilogue
    entry2.o(.ARM.Collect$$$$00000001) refers to entry2.o(.ARM.Collect$$$$00002712) for __lit__00000000
    entry2.o(.ARM.Collect$$$$00002712) refers to startup_stm32f10x_hd.o(STACK) for __initial_sp
    entry2.o(__vectab_stack_and_reset_area) refers to startup_stm32f10x_hd.o(STACK) for __initial_sp
    entry2.o(__vectab_stack_and_reset_area) refers to entry.o(.ARM.Collect$$$$00000000) for __main
    entry5.o(.ARM.Collect$$$$00000004) refers to init.o(.text) for __scatterload
    entry9a.o(.ARM.Collect$$$$0000000B) refers to main.o(i.main) for main
    entry9b.o(.ARM.Collect$$$$0000000C) refers to main.o(i.main) for main
    fputs.o(i.fputs) refers to bsp_usart.o(i.fputc) for fputc
    fputs_e.o(.text) refers to bsp_usart.o(i.fputc) for fputc
    uldiv.o(.text) refers to llushr.o(.text) for __aeabi_llsr
    uldiv.o(.text) refers to llshl.o(.text) for __aeabi_llsl
    errno.o(i.__aeabi_errno_addr) refers to errno.o(.data) for .data
    errno.o(i.__read_errno) refers to errno.o(.data) for .data
    errno.o(i.__set_errno) refers to errno.o(.data) for .data
    _scanf_longlong.o(.text) refers to _chval.o(.text) for _chval
    _scanf_int.o(.text) refers to _chval.o(.text) for _chval
    scanf_fp.o(.text) refers (Special) to iusefp.o(.text) for __I$use$fp
    scanf_fp.o(.text) refers to dfltul.o(.text) for __aeabi_ul2d
    scanf_fp.o(.text) refers to dmul.o(.text) for __aeabi_dmul
    scanf_fp.o(.text) refers to ddiv.o(.text) for __aeabi_ddiv
    scanf_fp.o(.text) refers to scanf_fp.o(i._is_digit) for _is_digit
    scanf_fp.o(.text) refers to d2f.o(.text) for __aeabi_d2f
    scanf_char.o(.text) refers to _scanf.o(.text) for __vfscanf
    scanf_char.o(.text) refers to isspace_c.o(.text) for isspace
    depilogue.o(.text) refers to llshl.o(.text) for __aeabi_llsl
    depilogue.o(.text) refers to llushr.o(.text) for __aeabi_llsr
    dadd.o(.text) refers to llshl.o(.text) for __aeabi_llsl
    dadd.o(.text) refers to llsshr.o(.text) for __aeabi_lasr
    dadd.o(.text) refers to depilogue.o(.text) for _double_epilogue
    dmul.o(.text) refers to depilogue.o(.text) for _double_epilogue
    dfixul.o(.text) refers to llushr.o(.text) for __aeabi_llsr
    dfixul.o(.text) refers to llshl.o(.text) for __aeabi_llsl
    init.o(.text) refers to entry5.o(.ARM.Collect$$$$00000004) for __main_after_scatterload
    isspace_c.o(.text) refers to ctype_c.o(.text) for __ctype_lookup
    _scanf.o(.text) refers (Weak) to scanf_fp.o(.text) for _scanf_real
    _scanf.o(.text) refers (Weak) to _scanf_longlong.o(.text) for _scanf_longlong
    _scanf.o(.text) refers (Weak) to _scanf_int.o(.text) for _scanf_int
    _scanf.o(.text) refers (Weak) to _scanf_str.o(.text) for _scanf_string
    dfltul.o(.text) refers to depilogue.o(.text) for _double_epilogue
    d2f.o(.text) refers to fepilogue.o(.text) for _float_round
    ctype_c.o(.text) refers to ctype_c.o(.constdata) for .constdata
    scanf_fp.o(i._is_digit) refers (Special) to iusefp.o(.text) for __I$use$fp


==============================================================================

Removing Unused input sections from the image.

    Removing main.o(i.DPrintf), (2 bytes).
    Removing protocol.o(i.PTC_ACK_success_para_cmd), (2 bytes).
    Removing protocol.o(i.PTC_ACK_tested), (112 bytes).
    Removing rc531_commu.o(i.rc531c_coll_cpuA_rfid), (66 bytes).
    Removing rc531_commu.o(i.rc531c_coll_rfid), (8 bytes).
    Removing rc531_commu.o(i.rc531c_halt_rfid_card), (30 bytes).
    Removing rc531_commu.o(i.rc531c_reset_rfid), (4 bytes).
    Removing lf125k.o(i.Card_initialization), (68 bytes).
    Removing lf125k.o(i.LF125K_card_init1), (52 bytes).
    Removing lf125k.o(i.LF125K_close_RF), (6 bytes).
    Removing lf125k.o(i.LF125K_get_cardid), (40 bytes).
    Removing lf125k.o(i.LF125K_open_RF), (6 bytes).
    Removing lf125k.o(i.LF125K_set_password), (52 bytes).
    Removing lf125k.o(i.LF125K_write_0_page_die), (4 bytes).
    Removing lf125k.o(i._nop_), (8 bytes).
    Removing cicc_api.o(i.cicc_m1_PiccAuthE2), (28 bytes).
    Removing cicc_api.o(i.cicc_m1_PiccDecrement), (14 bytes).
    Removing cicc_api.o(i.cicc_m1_PiccIncrease), (14 bytes).
    Removing cicc_api.o(i.cicc_m1_PiccRestore), (12 bytes).
    Removing cicc_api.o(i.cicc_m1_PiccTransfer), (12 bytes).
    Removing cicc_api.o(i.cicc_m1_loadkey), (26 bytes).
    Removing cicc_api.o(i.cicc_m1_storekey), (28 bytes).
    Removing cicc_commu.o(.data), (1 bytes).
    Removing cicc_func.o(i.TYPE_B_solt), (100 bytes).
    Removing cicc_iso14443.o(i.ISO_PPS_A), (4 bytes).
    Removing cicc_iso14443.o(i.PPS_Select), (2 bytes).
    Removing cicc_iso14443.o(i.isoDeselect), (12 bytes).
    Removing cicc_mifare1.o(i.M1_PcdLoadKeyE2), (72 bytes).
    Removing cicc_mifare1.o(i.M1_PcdReadE2), (76 bytes).
    Removing cicc_mifare1.o(i.M1_PcdStoreKeyE2), (38 bytes).
    Removing cicc_mifare1.o(i.M1_PcdWriteE2), (68 bytes).
    Removing cicc_mifare1.o(i.M1_PiccAuthE2), (100 bytes).
    Removing cicc_mifare1.o(i.M1_PiccDecrement), (188 bytes).
    Removing cicc_mifare1.o(i.M1_PiccIncrease), (188 bytes).
    Removing cicc_mifare1.o(i.M1_PiccRestore), (200 bytes).
    Removing cicc_mifare1.o(i.M1_PiccTransfer), (116 bytes).
    Removing cicc_rc531.o(i.rc531_PcdMfOutSelect), (10 bytes).
    Removing cicc_spi.o(i.msdelay), (8 bytes).
    Removing cicc_spi.o(i.u7se32_spi_init), (2 bytes).
    Removing rfid_firmware.o(i.ConfigReader), (2 bytes).
    Removing rfid_firmware.o(i.FW_ResetM100), (22 bytes).
    Removing rfid_firmware.o(i.I2CInit), (2 bytes).
    Removing rfid_firmware.o(i.Initialize_NV_item), (2 bytes).
    Removing rfid_firmware.o(i.Load_NV_config), (4 bytes).
    Removing rfid_firmware.o(i.ResetReaderChip), (24 bytes).
    Removing rfid_firmware.o(i.Save_NV_config), (4 bytes).
    Removing rfid_firmware.o(i.Send_Data_Uart0), (4 bytes).
    Removing rfid_firmware.o(i.Set_UART0_BAUD), (4 bytes).
    Removing rfid_firmware.o(i.Transfer_FW_IIC), (4 bytes).
    Removing pn512.o(i.CICCA512_ACITIVE), (82 bytes).
    Removing pn512.o(i.Cicc_Apdu512), (108 bytes).
    Removing pn512.o(i.LPC_memcpy), (24 bytes).
    Removing pn512.o(i.PcdBakValue), (170 bytes).
    Removing pn512.o(i.PcdHalt), (26 bytes).
    Removing pn512.o(i.PcdValue), (200 bytes).
    Removing pn512.o(i.ReaderATTRIB), (118 bytes).
    Removing pn512.o(i.ReaderREQB), (136 bytes).
    Removing pn512.o(i.SetTimeOut), (26 bytes).
    Removing iso14443-subr.o(i.iso14443_cascade_uid), (90 bytes).
    Removing iso14443-subr.o(i.iso14443a_crc), (46 bytes).
    Removing iso14443-subr.o(i.iso14443a_crc_append), (6 bytes).
    Removing iso14443-subr.o(i.iso14443a_locate_historical_bytes), (44 bytes).
    Removing iso14443-subr.o(i.iso14443b_crc), (48 bytes).
    Removing iso14443-subr.o(i.iso14443b_crc_append), (6 bytes).
    Removing mirror-subr.o(i.mirror), (12 bytes).
    Removing mirror-subr.o(i.mirror32), (14 bytes).
    Removing mirror-subr.o(i.mirror64), (16 bytes).
    Removing mirror-subr.o(i.mirror_bytes), (28 bytes).
    Removing mirror-subr.o(.constdata), (256 bytes).
    Removing nfc.o(i.nfc_abort_command), (26 bytes).
    Removing nfc.o(i.nfc_close), (12 bytes).
    Removing nfc.o(i.nfc_device_get_connstring), (6 bytes).
    Removing nfc.o(i.nfc_device_get_information_about), (26 bytes).
    Removing nfc.o(i.nfc_device_get_last_error), (6 bytes).
    Removing nfc.o(i.nfc_device_get_name), (4 bytes).
    Removing nfc.o(i.nfc_device_get_supported_baud_rate), (40 bytes).
    Removing nfc.o(i.nfc_device_get_supported_baud_rate_target_mode), (40 bytes).
    Removing nfc.o(i.nfc_device_get_supported_modulation), (26 bytes).
    Removing nfc.o(i.nfc_device_set_property_bool), (26 bytes).
    Removing nfc.o(i.nfc_device_set_property_int), (26 bytes).
    Removing nfc.o(i.nfc_device_validate_modulation), (98 bytes).
    Removing nfc.o(i.nfc_exit), (36 bytes).
    Removing nfc.o(i.nfc_free), (4 bytes).
    Removing nfc.o(i.nfc_idle), (26 bytes).
    Removing nfc.o(i.nfc_init), (36 bytes).
    Removing nfc.o(i.nfc_initiator_deselect_target), (26 bytes).
    Removing nfc.o(i.nfc_initiator_init), (146 bytes).
    Removing nfc.o(i.nfc_initiator_init_secure_element), (26 bytes).
    Removing nfc.o(i.nfc_initiator_list_passive_targets), (196 bytes).
    Removing nfc.o(i.nfc_initiator_poll_dep_target), (108 bytes).
    Removing nfc.o(i.nfc_initiator_poll_target), (38 bytes).
    Removing nfc.o(i.nfc_initiator_select_dep_target), (38 bytes).
    Removing nfc.o(i.nfc_initiator_select_passive_target), (166 bytes).
    Removing nfc.o(i.nfc_initiator_target_is_present), (26 bytes).
    Removing nfc.o(i.nfc_initiator_transceive_bits), (38 bytes).
    Removing nfc.o(i.nfc_initiator_transceive_bits_timed), (42 bytes).
    Removing nfc.o(i.nfc_initiator_transceive_bytes), (38 bytes).
    Removing nfc.o(i.nfc_initiator_transceive_bytes_timed), (38 bytes).
    Removing nfc.o(i.nfc_list_devices), (72 bytes).
    Removing nfc.o(i.nfc_open), (228 bytes).
    Removing nfc.o(i.nfc_perror), (36 bytes).
    Removing nfc.o(i.nfc_register_driver), (44 bytes).
    Removing nfc.o(i.nfc_strerror), (60 bytes).
    Removing nfc.o(i.nfc_strerror_r), (32 bytes).
    Removing nfc.o(i.nfc_target_init), (170 bytes).
    Removing nfc.o(i.nfc_target_receive_bits), (34 bytes).
    Removing nfc.o(i.nfc_target_receive_bytes), (34 bytes).
    Removing nfc.o(i.nfc_target_send_bits), (34 bytes).
    Removing nfc.o(i.nfc_target_send_bytes), (34 bytes).
    Removing nfc.o(i.nfc_version), (4 bytes).
    Removing nfc.o(i.str_nfc_baud_rate), (112 bytes).
    Removing nfc.o(i.str_nfc_modulation_type), (204 bytes).
    Removing nfc.o(i.str_nfc_target), (58 bytes).
    Removing nfc.o(.conststring), (261 bytes).
    Removing nfc.o(.data), (108 bytes).
    Removing nfc-internal.o(i.connstring_decode), (296 bytes).
    Removing nfc-internal.o(i.nfc_context_free), (4 bytes).
    Removing nfc-internal.o(i.nfc_context_new), (62 bytes).
    Removing nfc-internal.o(i.prepare_initiator_data), (96 bytes).
    Removing nfc-internal.o(i.string_as_boolean), (120 bytes).
    Removing target-subr.o(i.snprint_hex), (72 bytes).
    Removing target-subr.o(i.snprint_nfc_dep_info), (260 bytes).
    Removing target-subr.o(i.snprint_nfc_felica_info), (164 bytes).
    Removing target-subr.o(i.snprint_nfc_iso14443a_info), (4452 bytes).
    Removing target-subr.o(i.snprint_nfc_iso14443b2ct_info), (212 bytes).
    Removing target-subr.o(i.snprint_nfc_iso14443b2sr_info), (56 bytes).
    Removing target-subr.o(i.snprint_nfc_iso14443b_info), (1204 bytes).
    Removing target-subr.o(i.snprint_nfc_iso14443bi_info), (280 bytes).
    Removing target-subr.o(i.snprint_nfc_jewel_info), (108 bytes).
    Removing target-subr.o(i.snprint_nfc_target), (296 bytes).
    Removing target-subr.o(.constdata), (72 bytes).
    Removing target-subr.o(.conststring), (323 bytes).
    Removing target-subr.o(.data), (3986 bytes).
    Removing my_inittask.o(i.Bsp_SystemReset), (28 bytes).
    Removing my_inittask.o(i.RCC_Configuration), (98 bytes).
    Removing bsp_systick.o(i.SYSTICK_IntDisable), (14 bytes).
    Removing bsp_systick.o(i.SYSTICK_IntEnable), (14 bytes).
    Removing bsp_usart.o(i.USART2_Configuration), (148 bytes).
    Removing bsp_usart.o(i.USART2_set_IT_RXNE), (24 bytes).
    Removing bsp_usart.o(i.fgetc), (32 bytes).
    Removing bsp_gpio.o(i.GPIO_uhf_power_off), (16 bytes).
    Removing bsp_gpiotest.o(i.bsp_gpiotest_configuration), (372 bytes).
    Removing misc.o(i.NVIC_SetVectorTable), (20 bytes).
    Removing misc.o(i.NVIC_SystemLPConfig), (24 bytes).
    Removing system_stm32f10x.o(i.SystemCoreClockUpdate), (100 bytes).
    Removing system_stm32f10x.o(.data), (20 bytes).
    Removing stm32f10x_exti.o(i.EXTI_ClearFlag), (12 bytes).
    Removing stm32f10x_exti.o(i.EXTI_DeInit), (36 bytes).
    Removing stm32f10x_exti.o(i.EXTI_GenerateSWInterrupt), (16 bytes).
    Removing stm32f10x_exti.o(i.EXTI_GetFlagStatus), (20 bytes).
    Removing stm32f10x_exti.o(i.EXTI_Init), (112 bytes).
    Removing stm32f10x_exti.o(i.EXTI_StructInit), (14 bytes).
    Removing stm32f10x_flash.o(i.FLASH_ClearFlag), (12 bytes).
    Removing stm32f10x_flash.o(i.FLASH_EnableWriteProtection), (172 bytes).
    Removing stm32f10x_flash.o(i.FLASH_EraseAllBank1Pages), (56 bytes).
    Removing stm32f10x_flash.o(i.FLASH_EraseAllPages), (56 bytes).
    Removing stm32f10x_flash.o(i.FLASH_EraseOptionBytes), (124 bytes).
    Removing stm32f10x_flash.o(i.FLASH_ErasePage), (60 bytes).
    Removing stm32f10x_flash.o(i.FLASH_GetBank1Status), (40 bytes).
    Removing stm32f10x_flash.o(i.FLASH_GetFlagStatus), (32 bytes).
    Removing stm32f10x_flash.o(i.FLASH_GetPrefetchBufferStatus), (20 bytes).
    Removing stm32f10x_flash.o(i.FLASH_GetReadOutProtectionStatus), (20 bytes).
    Removing stm32f10x_flash.o(i.FLASH_GetStatus), (40 bytes).
    Removing stm32f10x_flash.o(i.FLASH_GetUserOptionByte), (12 bytes).
    Removing stm32f10x_flash.o(i.FLASH_GetWriteProtectionOptionByte), (12 bytes).
    Removing stm32f10x_flash.o(i.FLASH_HalfCycleAccessCmd), (24 bytes).
    Removing stm32f10x_flash.o(i.FLASH_ITConfig), (24 bytes).
    Removing stm32f10x_flash.o(i.FLASH_Lock), (16 bytes).
    Removing stm32f10x_flash.o(i.FLASH_LockBank1), (16 bytes).
    Removing stm32f10x_flash.o(i.FLASH_PrefetchBufferCmd), (24 bytes).
    Removing stm32f10x_flash.o(i.FLASH_ProgramHalfWord), (52 bytes).
    Removing stm32f10x_flash.o(i.FLASH_ProgramOptionByteData), (76 bytes).
    Removing stm32f10x_flash.o(i.FLASH_ProgramWord), (80 bytes).
    Removing stm32f10x_flash.o(i.FLASH_ReadOutProtection), (136 bytes).
    Removing stm32f10x_flash.o(i.FLASH_SetLatency), (20 bytes).
    Removing stm32f10x_flash.o(i.FLASH_Unlock), (24 bytes).
    Removing stm32f10x_flash.o(i.FLASH_UnlockBank1), (24 bytes).
    Removing stm32f10x_flash.o(i.FLASH_UserOptionByteConfig), (96 bytes).
    Removing stm32f10x_flash.o(i.FLASH_WaitForLastBank1Operation), (36 bytes).
    Removing stm32f10x_flash.o(i.FLASH_WaitForLastOperation), (36 bytes).
    Removing stm32f10x_gpio.o(i.GPIO_AFIODeInit), (22 bytes).
    Removing stm32f10x_gpio.o(i.GPIO_DeInit), (180 bytes).
    Removing stm32f10x_gpio.o(i.GPIO_ETH_MediaInterfaceConfig), (12 bytes).
    Removing stm32f10x_gpio.o(i.GPIO_EXTILineConfig), (40 bytes).
    Removing stm32f10x_gpio.o(i.GPIO_EventOutputCmd), (12 bytes).
    Removing stm32f10x_gpio.o(i.GPIO_EventOutputConfig), (28 bytes).
    Removing stm32f10x_gpio.o(i.GPIO_PinLockConfig), (16 bytes).
    Removing stm32f10x_gpio.o(i.GPIO_PinRemapConfig), (88 bytes).
    Removing stm32f10x_gpio.o(i.GPIO_ReadInputData), (6 bytes).
    Removing stm32f10x_gpio.o(i.GPIO_ReadOutputData), (6 bytes).
    Removing stm32f10x_gpio.o(i.GPIO_ReadOutputDataBit), (14 bytes).
    Removing stm32f10x_gpio.o(i.GPIO_ResetBits), (4 bytes).
    Removing stm32f10x_gpio.o(i.GPIO_SetBits), (4 bytes).
    Removing stm32f10x_gpio.o(i.GPIO_StructInit), (16 bytes).
    Removing stm32f10x_gpio.o(i.GPIO_Write), (4 bytes).
    Removing stm32f10x_rcc.o(i.RCC_ADCCLKConfig), (20 bytes).
    Removing stm32f10x_rcc.o(i.RCC_AHBPeriphClockCmd), (24 bytes).
    Removing stm32f10x_rcc.o(i.RCC_APB1PeriphResetCmd), (24 bytes).
    Removing stm32f10x_rcc.o(i.RCC_APB2PeriphResetCmd), (24 bytes).
    Removing stm32f10x_rcc.o(i.RCC_AdjustHSICalibrationValue), (20 bytes).
    Removing stm32f10x_rcc.o(i.RCC_BackupResetCmd), (12 bytes).
    Removing stm32f10x_rcc.o(i.RCC_ClearFlag), (16 bytes).
    Removing stm32f10x_rcc.o(i.RCC_ClearITPendingBit), (12 bytes).
    Removing stm32f10x_rcc.o(i.RCC_ClockSecuritySystemCmd), (12 bytes).
    Removing stm32f10x_rcc.o(i.RCC_DeInit), (64 bytes).
    Removing stm32f10x_rcc.o(i.RCC_GetFlagStatus), (48 bytes).
    Removing stm32f10x_rcc.o(i.RCC_GetITStatus), (20 bytes).
    Removing stm32f10x_rcc.o(i.RCC_GetSYSCLKSource), (16 bytes).
    Removing stm32f10x_rcc.o(i.RCC_HCLKConfig), (20 bytes).
    Removing stm32f10x_rcc.o(i.RCC_HSEConfig), (52 bytes).
    Removing stm32f10x_rcc.o(i.RCC_HSICmd), (12 bytes).
    Removing stm32f10x_rcc.o(i.RCC_ITConfig), (24 bytes).
    Removing stm32f10x_rcc.o(i.RCC_LSEConfig), (32 bytes).
    Removing stm32f10x_rcc.o(i.RCC_LSICmd), (12 bytes).
    Removing stm32f10x_rcc.o(i.RCC_MCOConfig), (12 bytes).
    Removing stm32f10x_rcc.o(i.RCC_PCLK1Config), (20 bytes).
    Removing stm32f10x_rcc.o(i.RCC_PCLK2Config), (20 bytes).
    Removing stm32f10x_rcc.o(i.RCC_PLLCmd), (12 bytes).
    Removing stm32f10x_rcc.o(i.RCC_PLLConfig), (20 bytes).
    Removing stm32f10x_rcc.o(i.RCC_RTCCLKCmd), (12 bytes).
    Removing stm32f10x_rcc.o(i.RCC_RTCCLKConfig), (16 bytes).
    Removing stm32f10x_rcc.o(i.RCC_SYSCLKConfig), (20 bytes).
    Removing stm32f10x_rcc.o(i.RCC_USBCLKConfig), (12 bytes).
    Removing stm32f10x_rcc.o(i.RCC_WaitForHSEStartUp), (44 bytes).
    Removing stm32f10x_usart.o(i.USART_ClearITPendingBit), (12 bytes).
    Removing stm32f10x_usart.o(i.USART_ClockInit), (30 bytes).
    Removing stm32f10x_usart.o(i.USART_ClockStructInit), (12 bytes).
    Removing stm32f10x_usart.o(i.USART_DMACmd), (16 bytes).
    Removing stm32f10x_usart.o(i.USART_DeInit), (116 bytes).
    Removing stm32f10x_usart.o(i.USART_HalfDuplexCmd), (20 bytes).
    Removing stm32f10x_usart.o(i.USART_IrDACmd), (20 bytes).
    Removing stm32f10x_usart.o(i.USART_IrDAConfig), (16 bytes).
    Removing stm32f10x_usart.o(i.USART_LINBreakDetectLengthConfig), (16 bytes).
    Removing stm32f10x_usart.o(i.USART_LINCmd), (20 bytes).
    Removing stm32f10x_usart.o(i.USART_OneBitMethodCmd), (20 bytes).
    Removing stm32f10x_usart.o(i.USART_OverSampling8Cmd), (20 bytes).
    Removing stm32f10x_usart.o(i.USART_ReceiverWakeUpCmd), (20 bytes).
    Removing stm32f10x_usart.o(i.USART_SendBreak), (10 bytes).
    Removing stm32f10x_usart.o(i.USART_SetAddress), (16 bytes).
    Removing stm32f10x_usart.o(i.USART_SetGuardTime), (16 bytes).
    Removing stm32f10x_usart.o(i.USART_SetPrescaler), (16 bytes).
    Removing stm32f10x_usart.o(i.USART_SmartCardCmd), (20 bytes).
    Removing stm32f10x_usart.o(i.USART_SmartCardNACKCmd), (20 bytes).
    Removing stm32f10x_usart.o(i.USART_StructInit), (22 bytes).
    Removing stm32f10x_usart.o(i.USART_WakeUpConfig), (16 bytes).
    Removing stm32f10x_spi.o(i.I2S_Cmd), (20 bytes).
    Removing stm32f10x_spi.o(i.I2S_Init), (152 bytes).
    Removing stm32f10x_spi.o(i.I2S_StructInit), (18 bytes).
    Removing stm32f10x_spi.o(i.SPI_BiDirectionalLineConfig), (22 bytes).
    Removing stm32f10x_spi.o(i.SPI_CalculateCRC), (20 bytes).
    Removing stm32f10x_spi.o(i.SPI_DataSizeConfig), (16 bytes).
    Removing stm32f10x_spi.o(i.SPI_GetCRC), (12 bytes).
    Removing stm32f10x_spi.o(i.SPI_GetCRCPolynomial), (4 bytes).
    Removing stm32f10x_spi.o(i.SPI_I2S_ClearFlag), (6 bytes).
    Removing stm32f10x_spi.o(i.SPI_I2S_ClearITPendingBit), (14 bytes).
    Removing stm32f10x_spi.o(i.SPI_I2S_DMACmd), (16 bytes).
    Removing stm32f10x_spi.o(i.SPI_I2S_DeInit), (84 bytes).
    Removing stm32f10x_spi.o(i.SPI_I2S_GetITStatus), (42 bytes).
    Removing stm32f10x_spi.o(i.SPI_I2S_ITConfig), (24 bytes).
    Removing stm32f10x_spi.o(i.SPI_NSSInternalSoftwareConfig), (24 bytes).
    Removing stm32f10x_spi.o(i.SPI_SSOutputCmd), (20 bytes).
    Removing stm32f10x_spi.o(i.SPI_StructInit), (24 bytes).
    Removing stm32f10x_spi.o(i.SPI_TransmitCRC), (10 bytes).
    Removing stm32f10x_sdio.o(i.SDIO_CEATAITCmd), (16 bytes).
    Removing stm32f10x_sdio.o(i.SDIO_ClearFlag), (12 bytes).
    Removing stm32f10x_sdio.o(i.SDIO_ClearITPendingBit), (12 bytes).
    Removing stm32f10x_sdio.o(i.SDIO_ClockCmd), (12 bytes).
    Removing stm32f10x_sdio.o(i.SDIO_CmdStructInit), (14 bytes).
    Removing stm32f10x_sdio.o(i.SDIO_CommandCompletionCmd), (12 bytes).
    Removing stm32f10x_sdio.o(i.SDIO_DMACmd), (12 bytes).
    Removing stm32f10x_sdio.o(i.SDIO_DataConfig), (44 bytes).
    Removing stm32f10x_sdio.o(i.SDIO_DataStructInit), (20 bytes).
    Removing stm32f10x_sdio.o(i.SDIO_DeInit), (36 bytes).
    Removing stm32f10x_sdio.o(i.SDIO_GetCommandResponse), (12 bytes).
    Removing stm32f10x_sdio.o(i.SDIO_GetDataCounter), (12 bytes).
    Removing stm32f10x_sdio.o(i.SDIO_GetFIFOCount), (12 bytes).
    Removing stm32f10x_sdio.o(i.SDIO_GetFlagStatus), (20 bytes).
    Removing stm32f10x_sdio.o(i.SDIO_GetITStatus), (20 bytes).
    Removing stm32f10x_sdio.o(i.SDIO_GetPowerState), (16 bytes).
    Removing stm32f10x_sdio.o(i.SDIO_GetResponse), (16 bytes).
    Removing stm32f10x_sdio.o(i.SDIO_ITConfig), (24 bytes).
    Removing stm32f10x_sdio.o(i.SDIO_Init), (44 bytes).
    Removing stm32f10x_sdio.o(i.SDIO_ReadData), (12 bytes).
    Removing stm32f10x_sdio.o(i.SDIO_SendCEATACmd), (12 bytes).
    Removing stm32f10x_sdio.o(i.SDIO_SendCommand), (40 bytes).
    Removing stm32f10x_sdio.o(i.SDIO_SendSDIOSuspendCmd), (12 bytes).
    Removing stm32f10x_sdio.o(i.SDIO_SetPowerState), (24 bytes).
    Removing stm32f10x_sdio.o(i.SDIO_SetSDIOOperation), (12 bytes).
    Removing stm32f10x_sdio.o(i.SDIO_SetSDIOReadWaitMode), (12 bytes).
    Removing stm32f10x_sdio.o(i.SDIO_StartSDIOReadWait), (12 bytes).
    Removing stm32f10x_sdio.o(i.SDIO_StopSDIOReadWait), (12 bytes).
    Removing stm32f10x_sdio.o(i.SDIO_StructInit), (16 bytes).
    Removing stm32f10x_sdio.o(i.SDIO_WriteData), (12 bytes).
    Removing stm32f10x_dma.o(i.DMA_ClearFlag), (24 bytes).
    Removing stm32f10x_dma.o(i.DMA_ClearITPendingBit), (24 bytes).
    Removing stm32f10x_dma.o(i.DMA_Cmd), (22 bytes).
    Removing stm32f10x_dma.o(i.DMA_DeInit), (228 bytes).
    Removing stm32f10x_dma.o(i.DMA_GetCurrDataCounter), (6 bytes).
    Removing stm32f10x_dma.o(i.DMA_GetFlagStatus), (32 bytes).
    Removing stm32f10x_dma.o(i.DMA_GetITStatus), (32 bytes).
    Removing stm32f10x_dma.o(i.DMA_ITConfig), (16 bytes).
    Removing stm32f10x_dma.o(i.DMA_Init), (58 bytes).
    Removing stm32f10x_dma.o(i.DMA_SetCurrDataCounter), (4 bytes).
    Removing stm32f10x_dma.o(i.DMA_StructInit), (26 bytes).
    Removing stm32f10x_tim.o(i.TI1_Config), (108 bytes).
    Removing stm32f10x_tim.o(i.TI2_Config), (124 bytes).
    Removing stm32f10x_tim.o(i.TIM_ARRPreloadConfig), (20 bytes).
    Removing stm32f10x_tim.o(i.TIM_BDTRConfig), (34 bytes).
    Removing stm32f10x_tim.o(i.TIM_BDTRStructInit), (18 bytes).
    Removing stm32f10x_tim.o(i.TIM_CCPreloadControl), (20 bytes).
    Removing stm32f10x_tim.o(i.TIM_CCxCmd), (22 bytes).
    Removing stm32f10x_tim.o(i.TIM_CCxNCmd), (22 bytes).
    Removing stm32f10x_tim.o(i.TIM_ClearFlag), (6 bytes).
    Removing stm32f10x_tim.o(i.TIM_ClearITPendingBit), (6 bytes).
    Removing stm32f10x_tim.o(i.TIM_ClearOC1Ref), (12 bytes).
    Removing stm32f10x_tim.o(i.TIM_ClearOC2Ref), (20 bytes).
    Removing stm32f10x_tim.o(i.TIM_ClearOC3Ref), (12 bytes).
    Removing stm32f10x_tim.o(i.TIM_ClearOC4Ref), (20 bytes).
    Removing stm32f10x_tim.o(i.TIM_CounterModeConfig), (12 bytes).
    Removing stm32f10x_tim.o(i.TIM_DMACmd), (16 bytes).
    Removing stm32f10x_tim.o(i.TIM_DMAConfig), (8 bytes).
    Removing stm32f10x_tim.o(i.TIM_DeInit), (368 bytes).
    Removing stm32f10x_tim.o(i.TIM_ETRClockMode1Config), (18 bytes).
    Removing stm32f10x_tim.o(i.TIM_ETRClockMode2Config), (18 bytes).
    Removing stm32f10x_tim.o(i.TIM_ETRConfig), (24 bytes).
    Removing stm32f10x_tim.o(i.TIM_EncoderInterfaceConfig), (50 bytes).
    Removing stm32f10x_tim.o(i.TIM_ForcedOC1Config), (12 bytes).
    Removing stm32f10x_tim.o(i.TIM_ForcedOC2Config), (20 bytes).
    Removing stm32f10x_tim.o(i.TIM_ForcedOC3Config), (12 bytes).
    Removing stm32f10x_tim.o(i.TIM_ForcedOC4Config), (20 bytes).
    Removing stm32f10x_tim.o(i.TIM_GenerateEvent), (4 bytes).
    Removing stm32f10x_tim.o(i.TIM_GetCapture1), (4 bytes).
    Removing stm32f10x_tim.o(i.TIM_GetCapture2), (4 bytes).
    Removing stm32f10x_tim.o(i.TIM_GetCapture3), (4 bytes).
    Removing stm32f10x_tim.o(i.TIM_GetCapture4), (6 bytes).
    Removing stm32f10x_tim.o(i.TIM_GetCounter), (4 bytes).
    Removing stm32f10x_tim.o(i.TIM_GetFlagStatus), (14 bytes).
    Removing stm32f10x_tim.o(i.TIM_GetITStatus), (24 bytes).
    Removing stm32f10x_tim.o(i.TIM_GetPrescaler), (4 bytes).
    Removing stm32f10x_tim.o(i.TIM_ICInit), (300 bytes).
    Removing stm32f10x_tim.o(i.TIM_ICStructInit), (16 bytes).
    Removing stm32f10x_tim.o(i.TIM_ITConfig), (16 bytes).
    Removing stm32f10x_tim.o(i.TIM_ITRxExternalClockConfig), (18 bytes).
    Removing stm32f10x_tim.o(i.TIM_InternalClockConfig), (10 bytes).
    Removing stm32f10x_tim.o(i.TIM_OC1FastConfig), (12 bytes).
    Removing stm32f10x_tim.o(i.TIM_OC1NPolarityConfig), (12 bytes).
    Removing stm32f10x_tim.o(i.TIM_OC1PolarityConfig), (12 bytes).
    Removing stm32f10x_tim.o(i.TIM_OC2FastConfig), (20 bytes).
    Removing stm32f10x_tim.o(i.TIM_OC2Init), (128 bytes).
    Removing stm32f10x_tim.o(i.TIM_OC2NPolarityConfig), (20 bytes).
    Removing stm32f10x_tim.o(i.TIM_OC2PolarityConfig), (20 bytes).
    Removing stm32f10x_tim.o(i.TIM_OC2PreloadConfig), (20 bytes).
    Removing stm32f10x_tim.o(i.TIM_OC3FastConfig), (12 bytes).
    Removing stm32f10x_tim.o(i.TIM_OC3Init), (124 bytes).
    Removing stm32f10x_tim.o(i.TIM_OC3NPolarityConfig), (20 bytes).
    Removing stm32f10x_tim.o(i.TIM_OC3PolarityConfig), (20 bytes).
    Removing stm32f10x_tim.o(i.TIM_OC3PreloadConfig), (12 bytes).
    Removing stm32f10x_tim.o(i.TIM_OC4FastConfig), (20 bytes).
    Removing stm32f10x_tim.o(i.TIM_OC4Init), (100 bytes).
    Removing stm32f10x_tim.o(i.TIM_OC4PolarityConfig), (20 bytes).
    Removing stm32f10x_tim.o(i.TIM_OC4PreloadConfig), (20 bytes).
    Removing stm32f10x_tim.o(i.TIM_OCStructInit), (20 bytes).
    Removing stm32f10x_tim.o(i.TIM_PWMIConfig), (108 bytes).
    Removing stm32f10x_tim.o(i.TIM_PrescalerConfig), (6 bytes).
    Removing stm32f10x_tim.o(i.TIM_SelectCCDMA), (20 bytes).
    Removing stm32f10x_tim.o(i.TIM_SelectCOM), (20 bytes).
    Removing stm32f10x_tim.o(i.TIM_SelectHallSensor), (20 bytes).
    Removing stm32f10x_tim.o(i.TIM_SelectInputTrigger), (12 bytes).
    Removing stm32f10x_tim.o(i.TIM_SelectMasterSlaveMode), (16 bytes).
    Removing stm32f10x_tim.o(i.TIM_SelectOCxM), (70 bytes).
    Removing stm32f10x_tim.o(i.TIM_SelectOnePulseMode), (16 bytes).
    Removing stm32f10x_tim.o(i.TIM_SelectOutputTrigger), (16 bytes).
    Removing stm32f10x_tim.o(i.TIM_SelectSlaveMode), (16 bytes).
    Removing stm32f10x_tim.o(i.TIM_SetAutoreload), (4 bytes).
    Removing stm32f10x_tim.o(i.TIM_SetClockDivision), (16 bytes).
    Removing stm32f10x_tim.o(i.TIM_SetCompare1), (4 bytes).
    Removing stm32f10x_tim.o(i.TIM_SetCompare2), (4 bytes).
    Removing stm32f10x_tim.o(i.TIM_SetCompare3), (4 bytes).
    Removing stm32f10x_tim.o(i.TIM_SetCompare4), (6 bytes).
    Removing stm32f10x_tim.o(i.TIM_SetCounter), (4 bytes).
    Removing stm32f10x_tim.o(i.TIM_SetIC1Prescaler), (16 bytes).
    Removing stm32f10x_tim.o(i.TIM_SetIC2Prescaler), (24 bytes).
    Removing stm32f10x_tim.o(i.TIM_SetIC3Prescaler), (16 bytes).
    Removing stm32f10x_tim.o(i.TIM_SetIC4Prescaler), (24 bytes).
    Removing stm32f10x_tim.o(i.TIM_TIxExternalClockConfig), (46 bytes).
    Removing stm32f10x_tim.o(i.TIM_TimeBaseStructInit), (18 bytes).
    Removing stm32f10x_tim.o(i.TIM_UpdateDisableConfig), (20 bytes).
    Removing stm32f10x_tim.o(i.TIM_UpdateRequestConfig), (20 bytes).
    Removing core_cm3.o(.emb_text), (32 bytes).
    Removing dscalb.o(.text), (46 bytes).
    Removing dflti.o(.text), (34 bytes).
    Removing dfltul.o(.text), (24 bytes).
    Removing d2f.o(.text), (56 bytes).
    Removing fepilogue.o(.text), (110 bytes).

394 unused section(s) (total 26749 bytes) removed from the image.

==============================================================================

Image Symbol Table

    Local Symbols

    Symbol Name                              Value     Ov Type        Size  Object(Section)

    RESET                                    0x00000000   Section      304  startup_stm32f10x_hd.o(RESET)
    ../clib/../cmprslib/zerorunl2.c          0x00000000   Number         0  __dczerorl2.o ABSOLUTE
    ../clib/microlib/ctype/ctype.c           0x00000000   Number         0  ctype_c.o ABSOLUTE
    ../clib/microlib/ctype/ctype.c           0x00000000   Number         0  isspace_c.o ABSOLUTE
    ../clib/microlib/division.c              0x00000000   Number         0  uidiv.o ABSOLUTE
    ../clib/microlib/division.c              0x00000000   Number         0  uldiv.o ABSOLUTE
    ../clib/microlib/errno.c                 0x00000000   Number         0  errno.o ABSOLUTE
    ../clib/microlib/init/entry.s            0x00000000   Number         0  entry10a.o ABSOLUTE
    ../clib/microlib/init/entry.s            0x00000000   Number         0  entry9b.o ABSOLUTE
    ../clib/microlib/init/entry.s            0x00000000   Number         0  entry9a.o ABSOLUTE
    ../clib/microlib/init/entry.s            0x00000000   Number         0  entry8b.o ABSOLUTE
    ../clib/microlib/init/entry.s            0x00000000   Number         0  entry8a.o ABSOLUTE
    ../clib/microlib/init/entry.s            0x00000000   Number         0  entry10b.o ABSOLUTE
    ../clib/microlib/init/entry.s            0x00000000   Number         0  entry7b.o ABSOLUTE
    ../clib/microlib/init/entry.s            0x00000000   Number         0  entry7a.o ABSOLUTE
    ../clib/microlib/init/entry.s            0x00000000   Number         0  entry5.o ABSOLUTE
    ../clib/microlib/init/entry.s            0x00000000   Number         0  entry.o ABSOLUTE
    ../clib/microlib/init/entry.s            0x00000000   Number         0  entry2.o ABSOLUTE
    ../clib/microlib/init/entry.s            0x00000000   Number         0  entry11a.o ABSOLUTE
    ../clib/microlib/init/entry.s            0x00000000   Number         0  entry11b.o ABSOLUTE
    ../clib/microlib/longlong.c              0x00000000   Number         0  llsshr.o ABSOLUTE
    ../clib/microlib/longlong.c              0x00000000   Number         0  llshl.o ABSOLUTE
    ../clib/microlib/longlong.c              0x00000000   Number         0  llushr.o ABSOLUTE
    ../clib/microlib/malloc/malloc.c         0x00000000   Number         0  mallocra.o ABSOLUTE
    ../clib/microlib/malloc/malloc.c         0x00000000   Number         0  malloca.o ABSOLUTE
    ../clib/microlib/malloc/malloc.c         0x00000000   Number         0  mallocr.o ABSOLUTE
    ../clib/microlib/malloc/malloc.c         0x00000000   Number         0  malloc.o ABSOLUTE
    ../clib/microlib/malloc/mvars.c          0x00000000   Number         0  mvars.o ABSOLUTE
    ../clib/microlib/printf/printf.c         0x00000000   Number         0  printf2.o ABSOLUTE
    ../clib/microlib/printf/printf.c         0x00000000   Number         0  printf1.o ABSOLUTE
    ../clib/microlib/printf/printf.c         0x00000000   Number         0  printf0.o ABSOLUTE
    ../clib/microlib/printf/printf.c         0x00000000   Number         0  printfb.o ABSOLUTE
    ../clib/microlib/printf/printf.c         0x00000000   Number         0  printfa.o ABSOLUTE
    ../clib/microlib/printf/printf.c         0x00000000   Number         0  printf8.o ABSOLUTE
    ../clib/microlib/printf/printf.c         0x00000000   Number         0  printf7.o ABSOLUTE
    ../clib/microlib/printf/printf.c         0x00000000   Number         0  printf6.o ABSOLUTE
    ../clib/microlib/printf/printf.c         0x00000000   Number         0  printf5.o ABSOLUTE
    ../clib/microlib/printf/printf.c         0x00000000   Number         0  printf4.o ABSOLUTE
    ../clib/microlib/printf/printf.c         0x00000000   Number         0  printf3.o ABSOLUTE
    ../clib/microlib/printf/stubs.s          0x00000000   Number         0  stubs.o ABSOLUTE
    ../clib/microlib/stdio/fputs.c           0x00000000   Number         0  fputs_e.o ABSOLUTE
    ../clib/microlib/stdio/fputs.c           0x00000000   Number         0  fputs.o ABSOLUTE
    ../clib/microlib/stdio/perror.c          0x00000000   Number         0  perror.o ABSOLUTE
    ../clib/microlib/stdio/streams.c         0x00000000   Number         0  stderr.o ABSOLUTE
    ../clib/microlib/stdio/streams.c         0x00000000   Number         0  stdout.o ABSOLUTE
    ../clib/microlib/string/memcmp.c         0x00000000   Number         0  memcmp.o ABSOLUTE
    ../clib/microlib/string/memcpy.c         0x00000000   Number         0  memcpyb.o ABSOLUTE
    ../clib/microlib/string/memcpy.c         0x00000000   Number         0  memcpya.o ABSOLUTE
    ../clib/microlib/string/memset.c         0x00000000   Number         0  memseta.o ABSOLUTE
    ../clib/microlib/string/strcmp.c         0x00000000   Number         0  strcmp.o ABSOLUTE
    ../clib/microlib/string/strcpy.c         0x00000000   Number         0  strcpy.o ABSOLUTE
    ../clib/microlib/string/strerror.c       0x00000000   Number         0  strerror.o ABSOLUTE
    ../clib/microlib/string/strlen.c         0x00000000   Number         0  strlen.o ABSOLUTE
    ../clib/microlib/string/strncmp.c        0x00000000   Number         0  strncmp.o ABSOLUTE
    ../clib/microlib/string/strncpy.c        0x00000000   Number         0  strncpy.o ABSOLUTE
    ../clib/microlib/stubs.s                 0x00000000   Number         0  iusefp.o ABSOLUTE
    ../clib/scanf.c                          0x00000000   Number         0  _scanf_longlong.o ABSOLUTE
    ../clib/scanf.c                          0x00000000   Number         0  _chval.o ABSOLUTE
    ../clib/scanf.c                          0x00000000   Number         0  _scanf_str.o ABSOLUTE
    ../clib/scanf.c                          0x00000000   Number         0  _scanf_int.o ABSOLUTE
    ../clib/scanf.c                          0x00000000   Number         0  scanf_fp.o ABSOLUTE
    ../clib/scanf.c                          0x00000000   Number         0  scanf_char.o ABSOLUTE
    ../clib/scanf.c                          0x00000000   Number         0  _sgetc.o ABSOLUTE
    ../clib/scanf.c                          0x00000000   Number         0  sscanf.o ABSOLUTE
    ../clib/scanf.c                          0x00000000   Number         0  _scanf.o ABSOLUTE
    ../fplib/microlib/d2f.c                  0x00000000   Number         0  d2f.o ABSOLUTE
    ../fplib/microlib/fpadd.c                0x00000000   Number         0  dadd.o ABSOLUTE
    ../fplib/microlib/fpdiv.c                0x00000000   Number         0  ddiv.o ABSOLUTE
    ../fplib/microlib/fpepilogue.c           0x00000000   Number         0  fepilogue.o ABSOLUTE
    ../fplib/microlib/fpepilogue.c           0x00000000   Number         0  depilogue.o ABSOLUTE
    ../fplib/microlib/fpfix.c                0x00000000   Number         0  dfixul.o ABSOLUTE
    ../fplib/microlib/fpflt.c                0x00000000   Number         0  dfltul.o ABSOLUTE
    ../fplib/microlib/fpflt.c                0x00000000   Number         0  dflti.o ABSOLUTE
    ../fplib/microlib/fpmul.c                0x00000000   Number         0  dmul.o ABSOLUTE
    ../fplib/microlib/fpscalb.c              0x00000000   Number         0  dscalb.o ABSOLUTE
    ..\..\Libraries\core_cm3.c               0x00000000   Number         0  core_cm3.o ABSOLUTE
    ..\..\Libraries\src\misc.c               0x00000000   Number         0  misc.o ABSOLUTE
    ..\..\Libraries\src\stm32f10x_dma.c      0x00000000   Number         0  stm32f10x_dma.o ABSOLUTE
    ..\..\Libraries\src\stm32f10x_exti.c     0x00000000   Number         0  stm32f10x_exti.o ABSOLUTE
    ..\..\Libraries\src\stm32f10x_flash.c    0x00000000   Number         0  stm32f10x_flash.o ABSOLUTE
    ..\..\Libraries\src\stm32f10x_gpio.c     0x00000000   Number         0  stm32f10x_gpio.o ABSOLUTE
    ..\..\Libraries\src\stm32f10x_rcc.c      0x00000000   Number         0  stm32f10x_rcc.o ABSOLUTE
    ..\..\Libraries\src\stm32f10x_sdio.c     0x00000000   Number         0  stm32f10x_sdio.o ABSOLUTE
    ..\..\Libraries\src\stm32f10x_spi.c      0x00000000   Number         0  stm32f10x_spi.o ABSOLUTE
    ..\..\Libraries\src\stm32f10x_tim.c      0x00000000   Number         0  stm32f10x_tim.o ABSOLUTE
    ..\..\Libraries\src\stm32f10x_usart.c    0x00000000   Number         0  stm32f10x_usart.o ABSOLUTE
    ..\..\Libraries\system_stm32f10x.c       0x00000000   Number         0  system_stm32f10x.o ABSOLUTE
    ..\..\Startup\startup_stm32f10x_hd.s     0x00000000   Number         0  startup_stm32f10x_hd.o ABSOLUTE
    ..\\..\\Libraries\\core_cm3.c            0x00000000   Number         0  core_cm3.o ABSOLUTE
    cdrcmple.s                               0x00000000   Number         0  cdrcmple.o ABSOLUTE
    code\App\crc16.c                         0x00000000   Number         0  crc16.o ABSOLUTE
    code\App\nfc_commu.c                     0x00000000   Number         0  nfc_commu.o ABSOLUTE
    code\App\protocol.c                      0x00000000   Number         0  protocol.o ABSOLUTE
    code\App\protocol_port.c                 0x00000000   Number         0  protocol_port.o ABSOLUTE
    code\App\rc531_commu.c                   0x00000000   Number         0  rc531_commu.o ABSOLUTE
    code\Bsp\My_InitTask.c                   0x00000000   Number         0  my_inittask.o ABSOLUTE
    code\Bsp\bsp_gpio.c                      0x00000000   Number         0  bsp_gpio.o ABSOLUTE
    code\Bsp\bsp_gpiotest.c                  0x00000000   Number         0  bsp_gpiotest.o ABSOLUTE
    code\Bsp\bsp_pwm.c                       0x00000000   Number         0  bsp_pwm.o ABSOLUTE
    code\Bsp\bsp_spi.c                       0x00000000   Number         0  bsp_spi.o ABSOLUTE
    code\Bsp\bsp_systick.c                   0x00000000   Number         0  bsp_systick.o ABSOLUTE
    code\Bsp\bsp_usart.c                     0x00000000   Number         0  bsp_usart.o ABSOLUTE
    code\Drv\M100\m100_commu.c               0x00000000   Number         0  m100_commu.o ABSOLUTE
    code\Drv\M100\m100_protocol.c            0x00000000   Number         0  m100_protocol.o ABSOLUTE
    code\Drv\M100\rfid_firmware.c            0x00000000   Number         0  rfid_firmware.o ABSOLUTE
    code\Drv\RCF531\cicc_api.c               0x00000000   Number         0  cicc_api.o ABSOLUTE
    code\Drv\RCF531\cicc_commu.c             0x00000000   Number         0  cicc_commu.o ABSOLUTE
    code\Drv\RCF531\cicc_func.c              0x00000000   Number         0  cicc_func.o ABSOLUTE
    code\Drv\RCF531\cicc_iso14443.C          0x00000000   Number         0  cicc_iso14443.o ABSOLUTE
    code\Drv\RCF531\cicc_mifare1.c           0x00000000   Number         0  cicc_mifare1.o ABSOLUTE
    code\Drv\RCF531\cicc_public.c            0x00000000   Number         0  cicc_public.o ABSOLUTE
    code\Drv\RCF531\cicc_rc531.c             0x00000000   Number         0  cicc_rc531.o ABSOLUTE
    code\Drv\RCF531\cicc_spi.c               0x00000000   Number         0  cicc_spi.o ABSOLUTE
    code\Drv\lf125k\lf125k.c                 0x00000000   Number         0  lf125k.o ABSOLUTE
    code\Drv\pn512\PN512.c                   0x00000000   Number         0  pn512.o ABSOLUTE
    code\Drv\pn512\libnfc\iso14443-subr.c    0x00000000   Number         0  iso14443-subr.o ABSOLUTE
    code\Drv\pn512\libnfc\mirror-subr.c      0x00000000   Number         0  mirror-subr.o ABSOLUTE
    code\Drv\pn512\libnfc\nfc-internal.c     0x00000000   Number         0  nfc-internal.o ABSOLUTE
    code\Drv\pn512\libnfc\nfc.c              0x00000000   Number         0  nfc.o ABSOLUTE
    code\Drv\pn512\libnfc\target-subr.c      0x00000000   Number         0  target-subr.o ABSOLUTE
    code\main.c                              0x00000000   Number         0  main.o ABSOLUTE
    code\stm32f10x_it.c                      0x00000000   Number         0  stm32f10x_it.o ABSOLUTE
    dc.s                                     0x00000000   Number         0  dc.o ABSOLUTE
    handlers.s                               0x00000000   Number         0  handlers.o ABSOLUTE
    init.s                                   0x00000000   Number         0  init.o ABSOLUTE
    .ARM.Collect$$$$00000000                 0x00000130   Section        0  entry.o(.ARM.Collect$$$$00000000)
    .ARM.Collect$$$$00000001                 0x00000130   Section        4  entry2.o(.ARM.Collect$$$$00000001)
    .ARM.Collect$$$$00000004                 0x00000134   Section        4  entry5.o(.ARM.Collect$$$$00000004)
    .ARM.Collect$$$$00000008                 0x00000138   Section        0  entry7b.o(.ARM.Collect$$$$00000008)
    .ARM.Collect$$$$0000000A                 0x00000138   Section        0  entry8b.o(.ARM.Collect$$$$0000000A)
    .ARM.Collect$$$$0000000B                 0x00000138   Section        8  entry9a.o(.ARM.Collect$$$$0000000B)
    .ARM.Collect$$$$0000000D                 0x00000140   Section        0  entry10a.o(.ARM.Collect$$$$0000000D)
    .ARM.Collect$$$$0000000F                 0x00000140   Section        0  entry11a.o(.ARM.Collect$$$$0000000F)
    .ARM.Collect$$$$00002712                 0x00000140   Section        4  entry2.o(.ARM.Collect$$$$00002712)
    __lit__00000000                          0x00000140   Data           4  entry2.o(.ARM.Collect$$$$00002712)
    .text                                    0x00000144   Section       36  startup_stm32f10x_hd.o(.text)
    .text                                    0x00000168   Section        0  memcpya.o(.text)
    .text                                    0x0000018c   Section        0  memseta.o(.text)
    .text                                    0x000001b0   Section        0  memcmp.o(.text)
    .text                                    0x000001ca   Section        0  ddiv.o(.text)
    .text                                    0x000002a8   Section        0  uidiv.o(.text)
    .text                                    0x000002d4   Section        0  uldiv.o(.text)
    .text                                    0x00000336   Section        0  iusefp.o(.text)
    .text                                    0x00000336   Section        0  depilogue.o(.text)
    .text                                    0x000003f0   Section        0  dadd.o(.text)
    .text                                    0x0000053e   Section        0  dmul.o(.text)
    .text                                    0x00000622   Section        0  dfixul.o(.text)
    .text                                    0x00000654   Section       48  cdrcmple.o(.text)
    .text                                    0x00000684   Section       36  init.o(.text)
    .text                                    0x000006a8   Section        0  llshl.o(.text)
    .text                                    0x000006c6   Section        0  llushr.o(.text)
    .text                                    0x000006e6   Section        0  llsshr.o(.text)
    .text                                    0x0000070a   Section        0  __dczerorl2.o(.text)
    i.BusFault_Handler                       0x00000760   Section        0  stm32f10x_it.o(i.BusFault_Handler)
    i.CRC16_calc                             0x0000077c   Section        0  crc16.o(i.CRC16_calc)
    i.CalulateCRC                            0x000007ac   Section        0  pn512.o(i.CalulateCRC)
    i.Cicc_Active                            0x00000812   Section        0  cicc_api.o(i.Cicc_Active)
    i.Cicc_ApduExchange                      0x00000858   Section        0  cicc_api.o(i.Cicc_ApduExchange)
    i.Cicc_PcdInit                           0x00000880   Section        0  cicc_api.o(i.Cicc_PcdInit)
    i.Cicc_PiccDeslect                       0x00000894   Section        0  cicc_api.o(i.Cicc_PiccDeslect)
    i.Cicc_PiccSeekActive                    0x00000898   Section        0  cicc_api.o(i.Cicc_PiccSeekActive)
    i.Cicc_WaitPiccRemove                    0x00000990   Section        0  cicc_api.o(i.Cicc_WaitPiccRemove)
    i.ClearBitMask                           0x000009a0   Section        0  pn512.o(i.ClearBitMask)
    i.Data_Processing                        0x000009b8   Section        0  lf125k.o(i.Data_Processing)
    i.DebugMon_Handler                       0x00000a10   Section        0  stm32f10x_it.o(i.DebugMon_Handler)
    i.Delay_us                               0x00000a12   Section        0  pn512.o(i.Delay_us)
    i.Delayus                                0x00000a24   Section        0  rfid_firmware.o(i.Delayus)
    i.Download_FW                            0x00000a34   Section        0  rfid_firmware.o(i.Download_FW)
    i.EXTI0_IRQHandler                       0x00000b04   Section        0  pn512.o(i.EXTI0_IRQHandler)
    i.EXTI15_10_IRQHandler                   0x00000b06   Section        0  stm32f10x_it.o(i.EXTI15_10_IRQHandler)
    i.EXTI9_5_IRQHandler                     0x00000b34   Section        0  stm32f10x_it.o(i.EXTI9_5_IRQHandler)
    i.EXTI_ClearITPendingBit                 0x00000b50   Section        0  stm32f10x_exti.o(i.EXTI_ClearITPendingBit)
    i.EXTI_GetITStatus                       0x00000b5c   Section        0  stm32f10x_exti.o(i.EXTI_GetITStatus)
    i.GPIO_Init                              0x00000b7c   Section        0  stm32f10x_gpio.o(i.GPIO_Init)
    i.GPIO_LF125K_configuration              0x00000c20   Section        0  bsp_gpio.o(i.GPIO_LF125K_configuration)
    i.GPIO_ReadInputDataBit                  0x00000c64   Section        0  stm32f10x_gpio.o(i.GPIO_ReadInputDataBit)
    i.GPIO_Uhf_configuration                 0x00000c74   Section        0  bsp_gpio.o(i.GPIO_Uhf_configuration)
    i.GPIO_WriteBit                          0x00000cc4   Section        0  stm32f10x_gpio.o(i.GPIO_WriteBit)
    i.GPIO_read_lf125k_data                  0x00000cd0   Section        0  bsp_gpio.o(i.GPIO_read_lf125k_data)
    i.GPIO_set_lf125k_clk                    0x00000ce0   Section        0  bsp_gpio.o(i.GPIO_set_lf125k_clk)
    i.GPIO_uhf_cen_disable                   0x00000cf8   Section        0  bsp_gpio.o(i.GPIO_uhf_cen_disable)
    i.GPIO_uhf_cen_enable                    0x00000d08   Section        0  bsp_gpio.o(i.GPIO_uhf_cen_enable)
    i.GPIO_uhf_power_on                      0x00000d18   Section        0  bsp_gpio.o(i.GPIO_uhf_power_on)
    i.HardFault_Handler                      0x00000d28   Section        0  stm32f10x_it.o(i.HardFault_Handler)
    i.ISO_PPS_B                              0x00000d60   Section        0  cicc_iso14443.o(i.ISO_PPS_B)
    i.LF125K_card_init                       0x00000d64   Section        0  lf125k.o(i.LF125K_card_init)
    i.LF125K_clear_pwd                       0x00000da8   Section        0  lf125k.o(i.LF125K_clear_pwd)
    i.LF125K_init                            0x00000e00   Section        0  lf125k.o(i.LF125K_init)
    i.LF125K_read_0_page                     0x00000e06   Section        0  lf125k.o(i.LF125K_read_0_page)
    i.LF125K_read_0_page_protect             0x00000e64   Section        0  lf125k.o(i.LF125K_read_0_page_protect)
    i.LF125K_read_1_page                     0x00000eac   Section        0  lf125k.o(i.LF125K_read_1_page)
    i.LF125K_set_pwd                         0x00000ef0   Section        0  lf125k.o(i.LF125K_set_pwd)
    i.LF125K_write_0_page                    0x00000f30   Section        0  lf125k.o(i.LF125K_write_0_page)
    i.LF125K_write_0_page_protect            0x00000fa4   Section        0  lf125k.o(i.LF125K_write_0_page_protect)
    i.M1_HostCodeKey                         0x0000100c   Section        0  cicc_mifare1.o(i.M1_HostCodeKey)
    i.M1_PiccAuthState                       0x0000103c   Section        0  cicc_mifare1.o(i.M1_PiccAuthState)
    i.M1_PiccAuth_key                        0x000010dc   Section        0  cicc_mifare1.o(i.M1_PiccAuth_key)
    i.M1_PiccBlockRead                       0x00001128   Section        0  cicc_mifare1.o(i.M1_PiccBlockRead)
    i.M1_PiccBlockWrite                      0x000011d0   Section        0  cicc_mifare1.o(i.M1_PiccBlockWrite)
    i.M500PcdReset                           0x00001288   Section        0  pn512.o(i.M500PcdReset)
    i.MemManage_Handler                      0x000012c8   Section        0  stm32f10x_it.o(i.MemManage_Handler)
    i.MfConfig                               0x000012e4   Section        0  pn512.o(i.MfConfig)
    i.My_InitTask                            0x000012f4   Section        0  my_inittask.o(i.My_InitTask)
    i.NMI_Handler                            0x0000131e   Section        0  stm32f10x_it.o(i.NMI_Handler)
    i.NVIC_Configuration                     0x00001320   Section        0  my_inittask.o(i.NVIC_Configuration)
    i.NVIC_Init                              0x00001394   Section        0  misc.o(i.NVIC_Init)
    i.NVIC_PriorityGroupConfig               0x000013f8   Section        0  misc.o(i.NVIC_PriorityGroupConfig)
    i.PN512PcdConfig                         0x0000140c   Section        0  pn512.o(i.PN512PcdConfig)
    i.PN512PcdConfigISOType                  0x00001410   Section        0  pn512.o(i.PN512PcdConfigISOType)
    i.PN512_Init                             0x000015b2   Section        0  pn512.o(i.PN512_Init)
    i.PTC_ACK_CMD                            0x000015c8   Section        0  protocol.o(i.PTC_ACK_CMD)
    i.PTC_ACK_inquiry                        0x00001638   Section        0  protocol.o(i.PTC_ACK_inquiry)
    i.PTC_ACK_success_cmd                    0x000016a8   Section        0  protocol.o(i.PTC_ACK_success_cmd)
    i.PTC_ACK_unrecognized_cmd               0x00001700   Section        0  protocol.o(i.PTC_ACK_unrecognized_cmd)
    i.PTC_CRC16_disable                      0x00001760   Section        0  protocol.o(i.PTC_CRC16_disable)
    i.PTC_CRC16_enable                       0x00001770   Section        0  protocol.o(i.PTC_CRC16_enable)
    i.PTC_detect_crc16cmd                    0x00001780   Section        0  protocol.o(i.PTC_detect_crc16cmd)
    i.PTC_get_command                        0x0000179c   Section        0  protocol.o(i.PTC_get_command)
    i.PTC_get_data                           0x000017bc   Section        0  protocol.o(i.PTC_get_data)
    i.PTC_judge_message                      0x000017e4   Section        0  protocol.o(i.PTC_judge_message)
    i.PTC_receive_data                       0x0000186c   Section        0  protocol.o(i.PTC_receive_data)
    i.PTC_refresh_receive                    0x000018b8   Section        0  protocol.o(i.PTC_refresh_receive)
    i.PTC_sendbyte                           0x000018c4   Section        0  protocol.o(i.PTC_sendbyte)
    i.PTC_sendbyte_n                         0x000018e4   Section        0  protocol.o(i.PTC_sendbyte_n)
    i.PTC_struct_init                        0x000018f0   Section        0  protocol.o(i.PTC_struct_init)
    i.PWM_configuration                      0x00001900   Section        0  bsp_pwm.o(i.PWM_configuration)
    i.PWM_start_beep                         0x00001998   Section        0  bsp_pwm.o(i.PWM_start_beep)
    i.PWM_stop_beep                          0x000019a4   Section        0  bsp_pwm.o(i.PWM_stop_beep)
    i.PcdAntennaOff                          0x000019b0   Section        0  pn512.o(i.PcdAntennaOff)
    i.PcdAntennaOn                           0x000019b8   Section        0  pn512.o(i.PcdAntennaOn)
    i.PcdAnticoll                            0x000019e0   Section        0  pn512.o(i.PcdAnticoll)
    i.PcdAuthState                           0x00001a88   Section        0  pn512.o(i.PcdAuthState)
    i.PcdComMF522                            0x00001afc   Section        0  pn512.o(i.PcdComMF522)
    i.PcdRead                                0x00001c12   Section        0  pn512.o(i.PcdRead)
    i.PcdRequest                             0x00001c6a   Section        0  pn512.o(i.PcdRequest)
    i.PcdSelect                              0x00001cc4   Section        0  pn512.o(i.PcdSelect)
    i.PcdWrite                               0x00001d3e   Section        0  pn512.o(i.PcdWrite)
    i.PendSV_Handler                         0x00001dcc   Section        0  stm32f10x_it.o(i.PendSV_Handler)
    i.RCC_APB1PeriphClockCmd                 0x00001dd0   Section        0  stm32f10x_rcc.o(i.RCC_APB1PeriphClockCmd)
    i.RCC_APB2PeriphClockCmd                 0x00001de8   Section        0  stm32f10x_rcc.o(i.RCC_APB2PeriphClockCmd)
    i.RCC_GetClocksFreq                      0x00001e00   Section        0  stm32f10x_rcc.o(i.RCC_GetClocksFreq)
    i.REM_Processing                         0x00001e90   Section        0  lf125k.o(i.REM_Processing)
    i.ReadRawRC                              0x00001f9c   Section        0  pn512.o(i.ReadRawRC)
    i.Rece_Data_Uart0                        0x00001fc4   Section        0  rfid_firmware.o(i.Rece_Data_Uart0)
    i.ResetInfo                              0x00001fd6   Section        0  cicc_public.o(i.ResetInfo)
    i.ResetInfo_len                          0x00001fea   Section        0  cicc_public.o(i.ResetInfo_len)
    i.SPI_Cmd                                0x00001ffa   Section        0  stm32f10x_spi.o(i.SPI_Cmd)
    i.SPI_I2S_GetFlagStatus                  0x0000200e   Section        0  stm32f10x_spi.o(i.SPI_I2S_GetFlagStatus)
    i.SPI_I2S_ReceiveData                    0x0000201c   Section        0  stm32f10x_spi.o(i.SPI_I2S_ReceiveData)
    i.SPI_I2S_SendData                       0x00002020   Section        0  stm32f10x_spi.o(i.SPI_I2S_SendData)
    i.SPI_Init                               0x00002024   Section        0  stm32f10x_spi.o(i.SPI_Init)
    i.SVC_Handler                            0x0000205c   Section        0  stm32f10x_it.o(i.SVC_Handler)
    i.SYSTICK_ClearSystickVal                0x0000205e   Section        0  bsp_systick.o(i.SYSTICK_ClearSystickVal)
    i.SYSTICK_Configuration                  0x00002068   Section        0  bsp_systick.o(i.SYSTICK_Configuration)
    i.SYSTICK_Delay10ms                      0x00002090   Section        0  bsp_systick.o(i.SYSTICK_Delay10ms)
    i.SYSTICK_GetVal                         0x000020ac   Section        0  bsp_systick.o(i.SYSTICK_GetVal)
    i.SYSTICK_get_time                       0x000020b4   Section        0  bsp_systick.o(i.SYSTICK_get_time)
    i.SetBitMask                             0x000020c0   Section        0  pn512.o(i.SetBitMask)
    i.SetSysClockTo72                        0x000020d8   Section        0  system_stm32f10x.o(i.SetSysClockTo72)
    SetSysClockTo72                          0x000020d9   Thumb Code   160  system_stm32f10x.o(i.SetSysClockTo72)
    i.SysTick_CLKSourceConfig                0x00002180   Section        0  misc.o(i.SysTick_CLKSourceConfig)
    i.SysTick_Handler                        0x00002198   Section        0  stm32f10x_it.o(i.SysTick_Handler)
    i.SystemInit                             0x000021a8   Section        0  system_stm32f10x.o(i.SystemInit)
    i.TIM_Cmd                                0x000021f8   Section        0  stm32f10x_tim.o(i.TIM_Cmd)
    i.TIM_CtrlPWMOutputs                     0x0000220c   Section        0  stm32f10x_tim.o(i.TIM_CtrlPWMOutputs)
    i.TIM_OC1Init                            0x00002224   Section        0  stm32f10x_tim.o(i.TIM_OC1Init)
    i.TIM_OC1PreloadConfig                   0x000022a4   Section        0  stm32f10x_tim.o(i.TIM_OC1PreloadConfig)
    i.TIM_TimeBaseInit                       0x000022b0   Section        0  stm32f10x_tim.o(i.TIM_TimeBaseInit)
    i.TYPE_AB_CardActive                     0x0000234c   Section        0  cicc_func.o(i.TYPE_AB_CardActive)
    i.TYPE_A_AntiMain                        0x000025e4   Section        0  cicc_func.o(i.TYPE_A_AntiMain)
    i.TYPE_A_Init                            0x00002788   Section        0  cicc_func.o(i.TYPE_A_Init)
    i.TYPE_A_PiccAnticoll                    0x000027ac   Section        0  cicc_func.o(i.TYPE_A_PiccAnticoll)
    i.TYPE_A_PiccHalt                        0x00002858   Section        0  cicc_func.o(i.TYPE_A_PiccHalt)
    i.TYPE_A_PiccPara                        0x000028ac   Section        0  cicc_iso14443.o(i.TYPE_A_PiccPara)
    i.TYPE_A_PiccRequest                     0x0000293c   Section        0  cicc_func.o(i.TYPE_A_PiccRequest)
    i.TYPE_A_PiccSelect                      0x00002a04   Section        0  cicc_func.o(i.TYPE_A_PiccSelect)
    i.TYPE_A_Removal                         0x00002ab4   Section        0  cicc_func.o(i.TYPE_A_Removal)
    i.TYPE_B_Attrib                          0x00002b14   Section        0  cicc_func.o(i.TYPE_B_Attrib)
    i.TYPE_B_Init                            0x00002d10   Section        0  cicc_func.o(i.TYPE_B_Init)
    i.TYPE_B_PiccHalt                        0x00002d28   Section        0  cicc_func.o(i.TYPE_B_PiccHalt)
    i.TYPE_B_PiccPara                        0x00002d80   Section        0  cicc_iso14443.o(i.TYPE_B_PiccPara)
    i.TYPE_B_PiccRequest                     0x00002de0   Section        0  cicc_func.o(i.TYPE_B_PiccRequest)
    i.TYPE_B_Removal                         0x00002f1c   Section        0  cicc_func.o(i.TYPE_B_Removal)
    i.UART4_Config_Baud                      0x00002f88   Section        0  bsp_usart.o(i.UART4_Config_Baud)
    i.UART4_Configuration                    0x00002fc8   Section        0  bsp_usart.o(i.UART4_Configuration)
    i.UART4_IRQHandler                       0x00003054   Section        0  stm32f10x_it.o(i.UART4_IRQHandler)
    i.UART4_ReceiveByte                      0x0000307c   Section        0  bsp_usart.o(i.UART4_ReceiveByte)
    i.UART4_SendData                         0x000030a4   Section        0  bsp_usart.o(i.UART4_SendData)
    i.UART4_set_IT_RXNE                      0x000030c4   Section        0  bsp_usart.o(i.UART4_set_IT_RXNE)
    i.USART1_IRQHandler                      0x000030dc   Section        0  stm32f10x_it.o(i.USART1_IRQHandler)
    i.USART2_IRQHandler                      0x00003104   Section        0  stm32f10x_it.o(i.USART2_IRQHandler)
    i.USART3_IRQHandler                      0x00003114   Section        0  stm32f10x_it.o(i.USART3_IRQHandler)
    i.USART_ClearFlag                        0x00003138   Section        0  stm32f10x_usart.o(i.USART_ClearFlag)
    i.USART_Cmd                              0x0000313e   Section        0  stm32f10x_usart.o(i.USART_Cmd)
    i.USART_Configuration                    0x00003154   Section        0  bsp_usart.o(i.USART_Configuration)
    i.USART_GetFlagStatus                    0x000031ec   Section        0  stm32f10x_usart.o(i.USART_GetFlagStatus)
    i.USART_GetITStatus                      0x000031fa   Section        0  stm32f10x_usart.o(i.USART_GetITStatus)
    i.USART_ITConfig                         0x00003238   Section        0  stm32f10x_usart.o(i.USART_ITConfig)
    i.USART_Init                             0x00003268   Section        0  stm32f10x_usart.o(i.USART_Init)
    i.USART_ReceiveData                      0x00003314   Section        0  stm32f10x_usart.o(i.USART_ReceiveData)
    i.USART_SendData                         0x0000331c   Section        0  stm32f10x_usart.o(i.USART_SendData)
    i.UsageFault_Handler                     0x00003324   Section        0  stm32f10x_it.o(i.UsageFault_Handler)
    i.WriteRawRC                             0x00003340   Section        0  pn512.o(i.WriteRawRC)
    i.__0printf                              0x00003368   Section        0  printfa.o(i.__0printf)
    i.__scatterload_copy                     0x00003388   Section       14  handlers.o(i.__scatterload_copy)
    i.__scatterload_null                     0x00003396   Section        2  handlers.o(i.__scatterload_null)
    i.__scatterload_zeroinit                 0x00003398   Section       14  handlers.o(i.__scatterload_zeroinit)
    i._fp_digits                             0x000033a8   Section        0  printfa.o(i._fp_digits)
    _fp_digits                               0x000033a9   Thumb Code   334  printfa.o(i._fp_digits)
    i._msdelay                               0x0000350c   Section        0  cicc_func.o(i._msdelay)
    i._printf_core                           0x00003520   Section        0  printfa.o(i._printf_core)
    _printf_core                             0x00003521   Thumb Code  1744  printfa.o(i._printf_core)
    i._printf_post_padding                   0x00003bfc   Section        0  printfa.o(i._printf_post_padding)
    _printf_post_padding                     0x00003bfd   Thumb Code    36  printfa.o(i._printf_post_padding)
    i._printf_pre_padding                    0x00003c20   Section        0  printfa.o(i._printf_pre_padding)
    _printf_pre_padding                      0x00003c21   Thumb Code    46  printfa.o(i._printf_pre_padding)
    i.cicc_m1_PiccAuth_key                   0x00003c4e   Section        0  cicc_api.o(i.cicc_m1_PiccAuth_key)
    i.cicc_m1_PiccBlockRead                  0x00003c6c   Section        0  cicc_api.o(i.cicc_m1_PiccBlockRead)
    i.cicc_m1_PiccBlockWrite                 0x00003c7a   Section        0  cicc_api.o(i.cicc_m1_PiccBlockWrite)
    i.cicc_m1_ReqAntiSele                    0x00003c88   Section        0  cicc_api.o(i.cicc_m1_ReqAntiSele)
    i.cicc_m1_halt                           0x00003d0e   Section        0  cicc_api.o(i.cicc_m1_halt)
    i.delay_www                              0x00003d12   Section        0  cicc_iso14443.o(i.delay_www)
    i.fputc                                  0x00003d38   Section        0  bsp_usart.o(i.fputc)
    i.free                                   0x00003d5c   Section        0  malloc.o(i.free)
    i.isoBlockExchange                       0x00003dac   Section        0  cicc_iso14443.o(i.isoBlockExchange)
    i.isoRatsA                               0x00003fbc   Section        0  cicc_iso14443.o(i.isoRatsA)
    i.m1_ReqAntiSele                         0x0000407c   Section        0  cicc_api.o(i.m1_ReqAntiSele)
    i.main                                   0x000040d0   Section        0  main.o(i.main)
    i.malloc                                 0x00004120   Section        0  malloc.o(i.malloc)
    i.nfcc_active_m1card                     0x0000418c   Section        0  nfc_commu.o(i.nfcc_active_m1card)
    i.nfcc_close_ant                         0x000041c4   Section        0  nfc_commu.o(i.nfcc_close_ant)
    i.nfcc_coll_m1card                       0x000041d0   Section        0  nfc_commu.o(i.nfcc_coll_m1card)
    i.nfcc_open_ant                          0x000041fc   Section        0  nfc_commu.o(i.nfcc_open_ant)
    i.nfcc_pwdauth                           0x00004208   Section        0  nfc_commu.o(i.nfcc_pwdauth)
    i.nfcc_read_sector                       0x0000422c   Section        0  nfc_commu.o(i.nfcc_read_sector)
    i.nfcc_request_m1card                    0x00004240   Section        0  nfc_commu.o(i.nfcc_request_m1card)
    i.nfcc_select_m1card                     0x00004274   Section        0  nfc_commu.o(i.nfcc_select_m1card)
    i.nfcc_write_sector                      0x000042a4   Section        0  nfc_commu.o(i.nfcc_write_sector)
    i.pcdSetRblock                           0x000042b4   Section        0  cicc_iso14443.o(i.pcdSetRblock)
    i.pcdSetSbrockWtx                        0x0000430c   Section        0  cicc_iso14443.o(i.pcdSetSbrockWtx)
    i.ptc_process                            0x00004394   Section        0  protocol_port.o(i.ptc_process)
    i.ptc_process_cmd_inquiry                0x000043e2   Section        0  protocol_port.o(i.ptc_process_cmd_inquiry)
    i.ptc_process_cmd_main                   0x00004488   Section        0  protocol_port.o(i.ptc_process_cmd_main)
    i.ptc_process_cmd_set                    0x000044ac   Section        0  protocol_port.o(i.ptc_process_cmd_set)
    i.ptc_process_cmd_tested                 0x000045f4   Section        0  protocol_port.o(i.ptc_process_cmd_tested)
    i.ptc_process_cmd_trans                  0x0000470c   Section        0  protocol_port.o(i.ptc_process_cmd_trans)
    i.rc531_ClrBitMask                       0x0000488a   Section        0  cicc_rc531.o(i.rc531_ClrBitMask)
    i.rc531_FlushFIFO                        0x000048a2   Section        0  cicc_rc531.o(i.rc531_FlushFIFO)
    i.rc531_ISR                              0x000048b6   Section        0  cicc_mifare1.o(i.rc531_ISR)
    i.rc531_PcdCmd                           0x00004994   Section        0  cicc_rc531.o(i.rc531_PcdCmd)
    i.rc531_PcdConfig_A                      0x00004c5c   Section        0  cicc_rc531.o(i.rc531_PcdConfig_A)
    i.rc531_PcdConfig_B                      0x00004d24   Section        0  cicc_rc531.o(i.rc531_PcdConfig_B)
    i.rc531_PcdReset                         0x00004df4   Section        0  cicc_rc531.o(i.rc531_PcdReset)
    i.rc531_PcdRfReset                       0x00004e28   Section        0  cicc_rc531.o(i.rc531_PcdRfReset)
    i.rc531_PcdSetFwt                        0x00004e7c   Section        0  cicc_rc531.o(i.rc531_PcdSetFwt)
    i.rc531_PcdSetTmo                        0x00004e9a   Section        0  cicc_rc531.o(i.rc531_PcdSetTmo)
    i.rc531_Read                             0x00004f10   Section        0  cicc_rc531.o(i.rc531_Read)
    i.rc531_SetBitMask                       0x00004f14   Section        0  cicc_rc531.o(i.rc531_SetBitMask)
    i.rc531_Write                            0x00004f2c   Section        0  cicc_rc531.o(i.rc531_Write)
    i.rc531_m1PcdCmd                         0x00004f30   Section        0  cicc_mifare1.o(i.rc531_m1PcdCmd)
    i.rc531c_active_cpua_rfid                0x000050ea   Section        0  rc531_commu.o(i.rc531c_active_cpua_rfid)
    i.rc531c_active_m1_rfid                  0x00005118   Section        0  rc531_commu.o(i.rc531c_active_m1_rfid)
    i.rc531c_apdu_rfid                       0x00005146   Section        0  rc531_commu.o(i.rc531c_apdu_rfid)
    i.rc531c_close_rfid                      0x00005182   Section        0  rc531_commu.o(i.rc531c_close_rfid)
    i.rc531c_coll_cpuB_rfid                  0x00005194   Section        0  rc531_commu.o(i.rc531c_coll_cpuB_rfid)
    i.rc531c_coll_cpua_rfid                  0x00005248   Section        0  rc531_commu.o(i.rc531c_coll_cpua_rfid)
    i.rc531c_coll_m1_rfid                    0x00005270   Section        0  rc531_commu.o(i.rc531c_coll_m1_rfid)
    i.rc531c_coll_m1card_rfid                0x00005294   Section        0  rc531_commu.o(i.rc531c_coll_m1card_rfid)
    i.rc531c_coll_tested_rfid                0x000052b8   Section        0  rc531_commu.o(i.rc531c_coll_tested_rfid)
    i.rc531c_find_rfid_card                  0x0000532c   Section        0  rc531_commu.o(i.rc531c_find_rfid_card)
    i.rc531c_halt_m1_rfid                    0x000053e8   Section        0  rc531_commu.o(i.rc531c_halt_m1_rfid)
    i.rc531c_m1pwd_rfid                      0x00005418   Section        0  rc531_commu.o(i.rc531c_m1pwd_rfid)
    i.rc531c_m1read_rfid                     0x00005440   Section        0  rc531_commu.o(i.rc531c_m1read_rfid)
    i.rc531c_m1write_rfid                    0x0000544a   Section        0  rc531_commu.o(i.rc531c_m1write_rfid)
    i.rc531c_move_rfid_card                  0x00005454   Section        0  rc531_commu.o(i.rc531c_move_rfid_card)
    i.rc531c_open_rfid                       0x00005478   Section        0  rc531_commu.o(i.rc531c_open_rfid)
    i.rc531c_read_cpucard_id                 0x00005484   Section        0  rc531_commu.o(i.rc531c_read_cpucard_id)
    i.rc531c_read_m1card_id                  0x000054da   Section        0  rc531_commu.o(i.rc531c_read_m1card_id)
    i.rc531c_req_cpua_rfid                   0x0000551c   Section        0  rc531_commu.o(i.rc531c_req_cpua_rfid)
    i.rc531c_req_m1_rfid                     0x000055a4   Section        0  rc531_commu.o(i.rc531c_req_m1_rfid)
    i.rc531c_select_cpua_rfid                0x0000562c   Section        0  rc531_commu.o(i.rc531c_select_cpua_rfid)
    i.rc531c_select_m1_rfid                  0x00005664   Section        0  rc531_commu.o(i.rc531c_select_m1_rfid)
    i.spi_pn512_configuration                0x000056b0   Section        0  bsp_spi.o(i.spi_pn512_configuration)
    i.spi_pn512_readwrite_byte               0x0000575c   Section        0  bsp_spi.o(i.spi_pn512_readwrite_byte)
    i.spi_pn512_set_nss                      0x00005790   Section        0  bsp_spi.o(i.spi_pn512_set_nss)
    i.spi_pn512_set_rst                      0x000057a8   Section        0  bsp_spi.o(i.spi_pn512_set_rst)
    i.spi_rc531_configuration                0x000057c0   Section        0  bsp_spi.o(i.spi_rc531_configuration)
    i.spi_rc531_readwrite_byte               0x00005864   Section        0  bsp_spi.o(i.spi_rc531_readwrite_byte)
    i.spi_rc531_set_nss                      0x00005898   Section        0  bsp_spi.o(i.spi_rc531_set_nss)
    i.spi_rc531_set_rst                      0x000058b0   Section        0  bsp_spi.o(i.spi_rc531_set_rst)
    i.u7se32_rc531_interface                 0x000058c8   Section        0  cicc_spi.o(i.u7se32_rc531_interface)
    i.u7se32_rc531_reset                     0x000058f0   Section        0  cicc_spi.o(i.u7se32_rc531_reset)
    i.u7se32_spi_read                        0x00005914   Section        0  cicc_spi.o(i.u7se32_spi_read)
    i.u7se32_spi_write                       0x0000594c   Section        0  cicc_spi.o(i.u7se32_spi_write)
    i.write_add                              0x00005980   Section        0  lf125k.o(i.write_add)
    i.write_data                             0x000059c8   Section        0  lf125k.o(i.write_data)
    i.write_lock                             0x00005a04   Section        0  lf125k.o(i.write_lock)
    i.write_od                               0x00005a14   Section        0  lf125k.o(i.write_od)
    .constdata                               0x00005a74   Section    13143  rfid_firmware.o(.constdata)
    .data                                    0x20000000   Section      512  crc16.o(.data)
    .data                                    0x20000200   Section        1  protocol_port.o(.data)
    .data                                    0x20000201   Section        1  nfc_commu.o(.data)
    .data                                    0x20000202   Section        8  lf125k.o(.data)
    .data                                    0x2000020a   Section        1  cicc_api.o(.data)
    .data                                    0x2000020b   Section        1  cicc_api.o(.data)
    .data                                    0x2000020c   Section        1  cicc_api.o(.data)
    .data                                    0x2000020d   Section        1  cicc_api.o(.data)
    .data                                    0x2000020e   Section        1  cicc_api.o(.data)
    .data                                    0x2000020f   Section        8  cicc_api.o(.data)
    .data                                    0x20000217   Section        1  cicc_api.o(.data)
    .data                                    0x20000218   Section        3  cicc_func.o(.data)
    .data                                    0x2000021b   Section        2  cicc_iso14443.o(.data)
    .data                                    0x2000021d   Section      102  cicc_public.o(.data)
    .data                                    0x20000283   Section        1  cicc_public.o(.data)
    .data                                    0x20000284   Section        2  rfid_firmware.o(.data)
    .data                                    0x20000288   Section        4  bsp_systick.o(.data)
    .data                                    0x2000028c   Section       20  stm32f10x_rcc.o(.data)
    ADCPrescTable                            0x2000028c   Data           4  stm32f10x_rcc.o(.data)
    APBAHBPrescTable                         0x20000290   Data          16  stm32f10x_rcc.o(.data)
    .data                                    0x200002a0   Section        4  stdout.o(.data)
    .data                                    0x200002a4   Section        4  mvars.o(.data)
    .data                                    0x200002a8   Section        4  mvars.o(.data)
    .bss                                     0x200002ac   Section      264  protocol.o(.bss)
    .bss                                     0x200003b4   Section       10  nfc_commu.o(.bss)
    .bss                                     0x200003be   Section      128  cicc_func.o(.bss)
    .bss                                     0x2000043e   Section      600  cicc_iso14443.o(.bss)
    .bss                                     0x20000696   Section      128  cicc_mifare1.o(.bss)
    .bss                                     0x20000718   Section       20  cicc_public.o(.bss)
    HEAP                                     0x20000730   Section     1024  startup_stm32f10x_hd.o(HEAP)
    STACK                                    0x20000b30   Section     1024  startup_stm32f10x_hd.o(STACK)

    Global Symbols

    Symbol Name                              Value     Ov Type        Size  Object(Section)

    BuildAttributes$$THM_ISAv4$P$D$K$B$S$PE$A:L22UL41UL21$X:L11$S22US41US21$IEEE1$IW$USESV6$~STKCKD$USESV7$~SHL$OTIME$ROPI$EBA8$MICROLIB$REQ8$PRES8$EABIv2 0x00000000   Number         0  anon$$obj.o ABSOLUTE
    __ARM_use_no_argv                        0x00000000   Number         0  main.o ABSOLUTE
    __Vectors                                0x00000000   Data           4  startup_stm32f10x_hd.o(RESET)
    _printf_a                                0x00000000   Number         0  stubs.o ABSOLUTE
    _printf_c                                0x00000000   Number         0  stubs.o ABSOLUTE
    _printf_charcount                        0x00000000   Number         0  stubs.o ABSOLUTE
    _printf_d                                0x00000000   Number         0  stubs.o ABSOLUTE
    _printf_e                                0x00000000   Number         0  stubs.o ABSOLUTE
    _printf_f                                0x00000000   Number         0  stubs.o ABSOLUTE
    _printf_flags                            0x00000000   Number         0  stubs.o ABSOLUTE
    _printf_fp_dec                           0x00000000   Number         0  stubs.o ABSOLUTE
    _printf_fp_hex                           0x00000000   Number         0  stubs.o ABSOLUTE
    _printf_g                                0x00000000   Number         0  stubs.o ABSOLUTE
    _printf_i                                0x00000000   Number         0  stubs.o ABSOLUTE
    _printf_int_dec                          0x00000000   Number         0  stubs.o ABSOLUTE
    _printf_l                                0x00000000   Number         0  stubs.o ABSOLUTE
    _printf_lc                               0x00000000   Number         0  stubs.o ABSOLUTE
    _printf_ll                               0x00000000   Number         0  stubs.o ABSOLUTE
    _printf_lld                              0x00000000   Number         0  stubs.o ABSOLUTE
    _printf_lli                              0x00000000   Number         0  stubs.o ABSOLUTE
    _printf_llo                              0x00000000   Number         0  stubs.o ABSOLUTE
    _printf_llu                              0x00000000   Number         0  stubs.o ABSOLUTE
    _printf_llx                              0x00000000   Number         0  stubs.o ABSOLUTE
    _printf_longlong_dec                     0x00000000   Number         0  stubs.o ABSOLUTE
    _printf_longlong_hex                     0x00000000   Number         0  stubs.o ABSOLUTE
    _printf_longlong_oct                     0x00000000   Number         0  stubs.o ABSOLUTE
    _printf_ls                               0x00000000   Number         0  stubs.o ABSOLUTE
    _printf_mbtowc                           0x00000000   Number         0  stubs.o ABSOLUTE
    _printf_n                                0x00000000   Number         0  stubs.o ABSOLUTE
    _printf_o                                0x00000000   Number         0  stubs.o ABSOLUTE
    _printf_p                                0x00000000   Number         0  stubs.o ABSOLUTE
    _printf_percent                          0x00000000   Number         0  stubs.o ABSOLUTE
    _printf_pre_padding                      0x00000000   Number         0  stubs.o ABSOLUTE
    _printf_return_value                     0x00000000   Number         0  stubs.o ABSOLUTE
    _printf_s                                0x00000000   Number         0  stubs.o ABSOLUTE
    _printf_sizespec                         0x00000000   Number         0  stubs.o ABSOLUTE
    _printf_str                              0x00000000   Number         0  stubs.o ABSOLUTE
    _printf_truncate_signed                  0x00000000   Number         0  stubs.o ABSOLUTE
    _printf_truncate_unsigned                0x00000000   Number         0  stubs.o ABSOLUTE
    _printf_u                                0x00000000   Number         0  stubs.o ABSOLUTE
    _printf_wc                               0x00000000   Number         0  stubs.o ABSOLUTE
    _printf_wctomb                           0x00000000   Number         0  stubs.o ABSOLUTE
    _printf_widthprec                        0x00000000   Number         0  stubs.o ABSOLUTE
    _printf_x                                0x00000000   Number         0  stubs.o ABSOLUTE
    __cpp_initialize__aeabi_                  - Undefined Weak Reference
    __cxa_finalize                            - Undefined Weak Reference
    _clock_init                               - Undefined Weak Reference
    _microlib_exit                            - Undefined Weak Reference
    __Vectors_End                            0x00000130   Data           0  startup_stm32f10x_hd.o(RESET)
    __Vectors_Size                           0x00000130   Number         0  startup_stm32f10x_hd.o ABSOLUTE
    __main                                   0x00000131   Thumb Code     0  entry.o(.ARM.Collect$$$$00000000)
    _main_stk                                0x00000131   Thumb Code     0  entry2.o(.ARM.Collect$$$$00000001)
    _main_scatterload                        0x00000135   Thumb Code     0  entry5.o(.ARM.Collect$$$$00000004)
    __main_after_scatterload                 0x00000139   Thumb Code     0  entry5.o(.ARM.Collect$$$$00000004)
    _main_clock                              0x00000139   Thumb Code     0  entry7b.o(.ARM.Collect$$$$00000008)
    _main_cpp_init                           0x00000139   Thumb Code     0  entry8b.o(.ARM.Collect$$$$0000000A)
    _main_init                               0x00000139   Thumb Code     0  entry9a.o(.ARM.Collect$$$$0000000B)
    __rt_final_cpp                           0x00000141   Thumb Code     0  entry10a.o(.ARM.Collect$$$$0000000D)
    __rt_final_exit                          0x00000141   Thumb Code     0  entry11a.o(.ARM.Collect$$$$0000000F)
    Reset_Handler                            0x00000145   Thumb Code     8  startup_stm32f10x_hd.o(.text)
    ADC1_2_IRQHandler                        0x0000015f   Thumb Code     0  startup_stm32f10x_hd.o(.text)
    ADC3_IRQHandler                          0x0000015f   Thumb Code     0  startup_stm32f10x_hd.o(.text)
    CAN1_RX1_IRQHandler                      0x0000015f   Thumb Code     0  startup_stm32f10x_hd.o(.text)
    CAN1_SCE_IRQHandler                      0x0000015f   Thumb Code     0  startup_stm32f10x_hd.o(.text)
    DMA1_Channel1_IRQHandler                 0x0000015f   Thumb Code     0  startup_stm32f10x_hd.o(.text)
    DMA1_Channel2_IRQHandler                 0x0000015f   Thumb Code     0  startup_stm32f10x_hd.o(.text)
    DMA1_Channel3_IRQHandler                 0x0000015f   Thumb Code     0  startup_stm32f10x_hd.o(.text)
    DMA1_Channel4_IRQHandler                 0x0000015f   Thumb Code     0  startup_stm32f10x_hd.o(.text)
    DMA1_Channel5_IRQHandler                 0x0000015f   Thumb Code     0  startup_stm32f10x_hd.o(.text)
    DMA1_Channel6_IRQHandler                 0x0000015f   Thumb Code     0  startup_stm32f10x_hd.o(.text)
    DMA1_Channel7_IRQHandler                 0x0000015f   Thumb Code     0  startup_stm32f10x_hd.o(.text)
    DMA2_Channel1_IRQHandler                 0x0000015f   Thumb Code     0  startup_stm32f10x_hd.o(.text)
    DMA2_Channel2_IRQHandler                 0x0000015f   Thumb Code     0  startup_stm32f10x_hd.o(.text)
    DMA2_Channel3_IRQHandler                 0x0000015f   Thumb Code     0  startup_stm32f10x_hd.o(.text)
    DMA2_Channel4_5_IRQHandler               0x0000015f   Thumb Code     0  startup_stm32f10x_hd.o(.text)
    EXTI1_IRQHandler                         0x0000015f   Thumb Code     0  startup_stm32f10x_hd.o(.text)
    EXTI2_IRQHandler                         0x0000015f   Thumb Code     0  startup_stm32f10x_hd.o(.text)
    EXTI3_IRQHandler                         0x0000015f   Thumb Code     0  startup_stm32f10x_hd.o(.text)
    EXTI4_IRQHandler                         0x0000015f   Thumb Code     0  startup_stm32f10x_hd.o(.text)
    FLASH_IRQHandler                         0x0000015f   Thumb Code     0  startup_stm32f10x_hd.o(.text)
    FSMC_IRQHandler                          0x0000015f   Thumb Code     0  startup_stm32f10x_hd.o(.text)
    I2C1_ER_IRQHandler                       0x0000015f   Thumb Code     0  startup_stm32f10x_hd.o(.text)
    I2C1_EV_IRQHandler                       0x0000015f   Thumb Code     0  startup_stm32f10x_hd.o(.text)
    I2C2_ER_IRQHandler                       0x0000015f   Thumb Code     0  startup_stm32f10x_hd.o(.text)
    I2C2_EV_IRQHandler                       0x0000015f   Thumb Code     0  startup_stm32f10x_hd.o(.text)
    PVD_IRQHandler                           0x0000015f   Thumb Code     0  startup_stm32f10x_hd.o(.text)
    RCC_IRQHandler                           0x0000015f   Thumb Code     0  startup_stm32f10x_hd.o(.text)
    RTCAlarm_IRQHandler                      0x0000015f   Thumb Code     0  startup_stm32f10x_hd.o(.text)
    RTC_IRQHandler                           0x0000015f   Thumb Code     0  startup_stm32f10x_hd.o(.text)
    SDIO_IRQHandler                          0x0000015f   Thumb Code     0  startup_stm32f10x_hd.o(.text)
    SPI1_IRQHandler                          0x0000015f   Thumb Code     0  startup_stm32f10x_hd.o(.text)
    SPI2_IRQHandler                          0x0000015f   Thumb Code     0  startup_stm32f10x_hd.o(.text)
    SPI3_IRQHandler                          0x0000015f   Thumb Code     0  startup_stm32f10x_hd.o(.text)
    TAMPER_IRQHandler                        0x0000015f   Thumb Code     0  startup_stm32f10x_hd.o(.text)
    TIM1_BRK_IRQHandler                      0x0000015f   Thumb Code     0  startup_stm32f10x_hd.o(.text)
    TIM1_CC_IRQHandler                       0x0000015f   Thumb Code     0  startup_stm32f10x_hd.o(.text)
    TIM1_TRG_COM_IRQHandler                  0x0000015f   Thumb Code     0  startup_stm32f10x_hd.o(.text)
    TIM1_UP_IRQHandler                       0x0000015f   Thumb Code     0  startup_stm32f10x_hd.o(.text)
    TIM2_IRQHandler                          0x0000015f   Thumb Code     0  startup_stm32f10x_hd.o(.text)
    TIM3_IRQHandler                          0x0000015f   Thumb Code     0  startup_stm32f10x_hd.o(.text)
    TIM4_IRQHandler                          0x0000015f   Thumb Code     0  startup_stm32f10x_hd.o(.text)
    TIM5_IRQHandler                          0x0000015f   Thumb Code     0  startup_stm32f10x_hd.o(.text)
    TIM6_IRQHandler                          0x0000015f   Thumb Code     0  startup_stm32f10x_hd.o(.text)
    TIM7_IRQHandler                          0x0000015f   Thumb Code     0  startup_stm32f10x_hd.o(.text)
    TIM8_BRK_IRQHandler                      0x0000015f   Thumb Code     0  startup_stm32f10x_hd.o(.text)
    TIM8_CC_IRQHandler                       0x0000015f   Thumb Code     0  startup_stm32f10x_hd.o(.text)
    TIM8_TRG_COM_IRQHandler                  0x0000015f   Thumb Code     0  startup_stm32f10x_hd.o(.text)
    TIM8_UP_IRQHandler                       0x0000015f   Thumb Code     0  startup_stm32f10x_hd.o(.text)
    UART5_IRQHandler                         0x0000015f   Thumb Code     0  startup_stm32f10x_hd.o(.text)
    USBWakeUp_IRQHandler                     0x0000015f   Thumb Code     0  startup_stm32f10x_hd.o(.text)
    USB_HP_CAN1_TX_IRQHandler                0x0000015f   Thumb Code     0  startup_stm32f10x_hd.o(.text)
    USB_LP_CAN1_RX0_IRQHandler               0x0000015f   Thumb Code     0  startup_stm32f10x_hd.o(.text)
    WWDG_IRQHandler                          0x0000015f   Thumb Code     0  startup_stm32f10x_hd.o(.text)
    __aeabi_memcpy                           0x00000169   Thumb Code    36  memcpya.o(.text)
    __aeabi_memcpy4                          0x00000169   Thumb Code     0  memcpya.o(.text)
    __aeabi_memcpy8                          0x00000169   Thumb Code     0  memcpya.o(.text)
    __aeabi_memset                           0x0000018d   Thumb Code    14  memseta.o(.text)
    __aeabi_memset4                          0x0000018d   Thumb Code     0  memseta.o(.text)
    __aeabi_memset8                          0x0000018d   Thumb Code     0  memseta.o(.text)
    __aeabi_memclr                           0x0000019b   Thumb Code     4  memseta.o(.text)
    __aeabi_memclr4                          0x0000019b   Thumb Code     0  memseta.o(.text)
    __aeabi_memclr8                          0x0000019b   Thumb Code     0  memseta.o(.text)
    _memset$wrapper                          0x0000019f   Thumb Code    18  memseta.o(.text)
    memcmp                                   0x000001b1   Thumb Code    26  memcmp.o(.text)
    __aeabi_ddiv                             0x000001cb   Thumb Code   222  ddiv.o(.text)
    __aeabi_uidiv                            0x000002a9   Thumb Code     0  uidiv.o(.text)
    __aeabi_uidivmod                         0x000002a9   Thumb Code    44  uidiv.o(.text)
    __aeabi_uldivmod                         0x000002d5   Thumb Code    98  uldiv.o(.text)
    __I$use$fp                               0x00000337   Thumb Code     0  iusefp.o(.text)
    _double_round                            0x00000337   Thumb Code    30  depilogue.o(.text)
    _double_epilogue                         0x00000355   Thumb Code   156  depilogue.o(.text)
    __aeabi_dadd                             0x000003f1   Thumb Code   322  dadd.o(.text)
    __aeabi_dsub                             0x00000533   Thumb Code     6  dadd.o(.text)
    __aeabi_drsub                            0x00000539   Thumb Code     6  dadd.o(.text)
    __aeabi_dmul                             0x0000053f   Thumb Code   228  dmul.o(.text)
    __aeabi_d2ulz                            0x00000623   Thumb Code    48  dfixul.o(.text)
    __aeabi_cdrcmple                         0x00000655   Thumb Code    48  cdrcmple.o(.text)
    __scatterload                            0x00000685   Thumb Code    28  init.o(.text)
    __scatterload_rt2                        0x00000685   Thumb Code     0  init.o(.text)
    __aeabi_llsl                             0x000006a9   Thumb Code    30  llshl.o(.text)
    _ll_shift_l                              0x000006a9   Thumb Code     0  llshl.o(.text)
    __aeabi_llsr                             0x000006c7   Thumb Code    32  llushr.o(.text)
    _ll_ushift_r                             0x000006c7   Thumb Code     0  llushr.o(.text)
    __aeabi_lasr                             0x000006e7   Thumb Code    36  llsshr.o(.text)
    _ll_sshift_r                             0x000006e7   Thumb Code     0  llsshr.o(.text)
    __decompress                             0x0000070b   Thumb Code     0  __dczerorl2.o(.text)
    __decompress1                            0x0000070b   Thumb Code    86  __dczerorl2.o(.text)
    BusFault_Handler                         0x00000761   Thumb Code     8  stm32f10x_it.o(i.BusFault_Handler)
    CRC16_calc                               0x0000077d   Thumb Code    42  crc16.o(i.CRC16_calc)
    CalulateCRC                              0x000007ad   Thumb Code   102  pn512.o(i.CalulateCRC)
    Cicc_Active                              0x00000813   Thumb Code    68  cicc_api.o(i.Cicc_Active)
    Cicc_ApduExchange                        0x00000859   Thumb Code    36  cicc_api.o(i.Cicc_ApduExchange)
    Cicc_PcdInit                             0x00000881   Thumb Code    20  cicc_api.o(i.Cicc_PcdInit)
    Cicc_PiccDeslect                         0x00000895   Thumb Code     4  cicc_api.o(i.Cicc_PiccDeslect)
    Cicc_PiccSeekActive                      0x00000899   Thumb Code   240  cicc_api.o(i.Cicc_PiccSeekActive)
    Cicc_WaitPiccRemove                      0x00000991   Thumb Code    16  cicc_api.o(i.Cicc_WaitPiccRemove)
    ClearBitMask                             0x000009a1   Thumb Code    24  pn512.o(i.ClearBitMask)
    Data_Processing                          0x000009b9   Thumb Code    70  lf125k.o(i.Data_Processing)
    DebugMon_Handler                         0x00000a11   Thumb Code     2  stm32f10x_it.o(i.DebugMon_Handler)
    Delay_us                                 0x00000a13   Thumb Code    18  pn512.o(i.Delay_us)
    Delayus                                  0x00000a25   Thumb Code    16  rfid_firmware.o(i.Delayus)
    Download_FW                              0x00000a35   Thumb Code   198  rfid_firmware.o(i.Download_FW)
    EXTI0_IRQHandler                         0x00000b05   Thumb Code     2  pn512.o(i.EXTI0_IRQHandler)
    EXTI15_10_IRQHandler                     0x00000b07   Thumb Code    46  stm32f10x_it.o(i.EXTI15_10_IRQHandler)
    EXTI9_5_IRQHandler                       0x00000b35   Thumb Code    28  stm32f10x_it.o(i.EXTI9_5_IRQHandler)
    EXTI_ClearITPendingBit                   0x00000b51   Thumb Code     6  stm32f10x_exti.o(i.EXTI_ClearITPendingBit)
    EXTI_GetITStatus                         0x00000b5d   Thumb Code    28  stm32f10x_exti.o(i.EXTI_GetITStatus)
    GPIO_Init                                0x00000b7d   Thumb Code   162  stm32f10x_gpio.o(i.GPIO_Init)
    GPIO_LF125K_configuration                0x00000c21   Thumb Code    62  bsp_gpio.o(i.GPIO_LF125K_configuration)
    GPIO_ReadInputDataBit                    0x00000c65   Thumb Code    14  stm32f10x_gpio.o(i.GPIO_ReadInputDataBit)
    GPIO_Uhf_configuration                   0x00000c75   Thumb Code    70  bsp_gpio.o(i.GPIO_Uhf_configuration)
    GPIO_WriteBit                            0x00000cc5   Thumb Code    10  stm32f10x_gpio.o(i.GPIO_WriteBit)
    GPIO_read_lf125k_data                    0x00000cd1   Thumb Code    10  bsp_gpio.o(i.GPIO_read_lf125k_data)
    GPIO_set_lf125k_clk                      0x00000ce1   Thumb Code    20  bsp_gpio.o(i.GPIO_set_lf125k_clk)
    GPIO_uhf_cen_disable                     0x00000cf9   Thumb Code    10  bsp_gpio.o(i.GPIO_uhf_cen_disable)
    GPIO_uhf_cen_enable                      0x00000d09   Thumb Code    10  bsp_gpio.o(i.GPIO_uhf_cen_enable)
    GPIO_uhf_power_on                        0x00000d19   Thumb Code    10  bsp_gpio.o(i.GPIO_uhf_power_on)
    HardFault_Handler                        0x00000d29   Thumb Code    26  stm32f10x_it.o(i.HardFault_Handler)
    ISO_PPS_B                                0x00000d61   Thumb Code     4  cicc_iso14443.o(i.ISO_PPS_B)
    LF125K_card_init                         0x00000d65   Thumb Code    62  lf125k.o(i.LF125K_card_init)
    LF125K_clear_pwd                         0x00000da9   Thumb Code    84  lf125k.o(i.LF125K_clear_pwd)
    LF125K_init                              0x00000e01   Thumb Code     6  lf125k.o(i.LF125K_init)
    LF125K_read_0_page                       0x00000e07   Thumb Code    92  lf125k.o(i.LF125K_read_0_page)
    LF125K_read_0_page_protect               0x00000e65   Thumb Code    68  lf125k.o(i.LF125K_read_0_page_protect)
    LF125K_read_1_page                       0x00000ead   Thumb Code    68  lf125k.o(i.LF125K_read_1_page)
    LF125K_set_pwd                           0x00000ef1   Thumb Code    60  lf125k.o(i.LF125K_set_pwd)
    LF125K_write_0_page                      0x00000f31   Thumb Code   112  lf125k.o(i.LF125K_write_0_page)
    LF125K_write_0_page_protect              0x00000fa5   Thumb Code   100  lf125k.o(i.LF125K_write_0_page_protect)
    M1_HostCodeKey                           0x0000100d   Thumb Code    46  cicc_mifare1.o(i.M1_HostCodeKey)
    M1_PiccAuthState                         0x0000103d   Thumb Code   146  cicc_mifare1.o(i.M1_PiccAuthState)
    M1_PiccAuth_key                          0x000010dd   Thumb Code    68  cicc_mifare1.o(i.M1_PiccAuth_key)
    M1_PiccBlockRead                         0x00001129   Thumb Code   136  cicc_mifare1.o(i.M1_PiccBlockRead)
    M1_PiccBlockWrite                        0x000011d1   Thumb Code   170  cicc_mifare1.o(i.M1_PiccBlockWrite)
    M500PcdReset                             0x00001289   Thumb Code    62  pn512.o(i.M500PcdReset)
    MemManage_Handler                        0x000012c9   Thumb Code     8  stm32f10x_it.o(i.MemManage_Handler)
    MfConfig                                 0x000012e5   Thumb Code    16  pn512.o(i.MfConfig)
    My_InitTask                              0x000012f5   Thumb Code    42  my_inittask.o(i.My_InitTask)
    NMI_Handler                              0x0000131f   Thumb Code     2  stm32f10x_it.o(i.NMI_Handler)
    NVIC_Configuration                       0x00001321   Thumb Code   116  my_inittask.o(i.NVIC_Configuration)
    NVIC_Init                                0x00001395   Thumb Code    94  misc.o(i.NVIC_Init)
    NVIC_PriorityGroupConfig                 0x000013f9   Thumb Code    10  misc.o(i.NVIC_PriorityGroupConfig)
    PN512PcdConfig                           0x0000140d   Thumb Code     4  pn512.o(i.PN512PcdConfig)
    PN512PcdConfigISOType                    0x00001411   Thumb Code   418  pn512.o(i.PN512PcdConfigISOType)
    PN512_Init                               0x000015b3   Thumb Code    22  pn512.o(i.PN512_Init)
    PTC_ACK_CMD                              0x000015c9   Thumb Code   112  protocol.o(i.PTC_ACK_CMD)
    PTC_ACK_inquiry                          0x00001639   Thumb Code   110  protocol.o(i.PTC_ACK_inquiry)
    PTC_ACK_success_cmd                      0x000016a9   Thumb Code    84  protocol.o(i.PTC_ACK_success_cmd)
    PTC_ACK_unrecognized_cmd                 0x00001701   Thumb Code    92  protocol.o(i.PTC_ACK_unrecognized_cmd)
    PTC_CRC16_disable                        0x00001761   Thumb Code    12  protocol.o(i.PTC_CRC16_disable)
    PTC_CRC16_enable                         0x00001771   Thumb Code    12  protocol.o(i.PTC_CRC16_enable)
    PTC_detect_crc16cmd                      0x00001781   Thumb Code    24  protocol.o(i.PTC_detect_crc16cmd)
    PTC_get_command                          0x0000179d   Thumb Code    28  protocol.o(i.PTC_get_command)
    PTC_get_data                             0x000017bd   Thumb Code    34  protocol.o(i.PTC_get_data)
    PTC_judge_message                        0x000017e5   Thumb Code   132  protocol.o(i.PTC_judge_message)
    PTC_receive_data                         0x0000186d   Thumb Code    62  protocol.o(i.PTC_receive_data)
    PTC_refresh_receive                      0x000018b9   Thumb Code     8  protocol.o(i.PTC_refresh_receive)
    PTC_sendbyte                             0x000018c5   Thumb Code    26  protocol.o(i.PTC_sendbyte)
    PTC_sendbyte_n                           0x000018e5   Thumb Code     8  protocol.o(i.PTC_sendbyte_n)
    PTC_struct_init                          0x000018f1   Thumb Code    10  protocol.o(i.PTC_struct_init)
    PWM_configuration                        0x00001901   Thumb Code   144  bsp_pwm.o(i.PWM_configuration)
    PWM_start_beep                           0x00001999   Thumb Code     8  bsp_pwm.o(i.PWM_start_beep)
    PWM_stop_beep                            0x000019a5   Thumb Code     8  bsp_pwm.o(i.PWM_stop_beep)
    PcdAntennaOff                            0x000019b1   Thumb Code     8  pn512.o(i.PcdAntennaOff)
    PcdAntennaOn                             0x000019b9   Thumb Code    40  pn512.o(i.PcdAntennaOn)
    PcdAnticoll                              0x000019e1   Thumb Code   166  pn512.o(i.PcdAnticoll)
    PcdAuthState                             0x00001a89   Thumb Code   116  pn512.o(i.PcdAuthState)
    PcdComMF522                              0x00001afd   Thumb Code   278  pn512.o(i.PcdComMF522)
    PcdRead                                  0x00001c13   Thumb Code    88  pn512.o(i.PcdRead)
    PcdRequest                               0x00001c6b   Thumb Code    90  pn512.o(i.PcdRequest)
    PcdSelect                                0x00001cc5   Thumb Code   122  pn512.o(i.PcdSelect)
    PcdWrite                                 0x00001d3f   Thumb Code   142  pn512.o(i.PcdWrite)
    PendSV_Handler                           0x00001dcd   Thumb Code     2  stm32f10x_it.o(i.PendSV_Handler)
    RCC_APB1PeriphClockCmd                   0x00001dd1   Thumb Code    18  stm32f10x_rcc.o(i.RCC_APB1PeriphClockCmd)
    RCC_APB2PeriphClockCmd                   0x00001de9   Thumb Code    18  stm32f10x_rcc.o(i.RCC_APB2PeriphClockCmd)
    RCC_GetClocksFreq                        0x00001e01   Thumb Code   128  stm32f10x_rcc.o(i.RCC_GetClocksFreq)
    REM_Processing                           0x00001e91   Thumb Code   248  lf125k.o(i.REM_Processing)
    ReadRawRC                                0x00001f9d   Thumb Code    40  pn512.o(i.ReadRawRC)
    Rece_Data_Uart0                          0x00001fc5   Thumb Code    18  rfid_firmware.o(i.Rece_Data_Uart0)
    ResetInfo                                0x00001fd7   Thumb Code    20  cicc_public.o(i.ResetInfo)
    ResetInfo_len                            0x00001feb   Thumb Code    16  cicc_public.o(i.ResetInfo_len)
    SPI_Cmd                                  0x00001ffb   Thumb Code    20  stm32f10x_spi.o(i.SPI_Cmd)
    SPI_I2S_GetFlagStatus                    0x0000200f   Thumb Code    14  stm32f10x_spi.o(i.SPI_I2S_GetFlagStatus)
    SPI_I2S_ReceiveData                      0x0000201d   Thumb Code     4  stm32f10x_spi.o(i.SPI_I2S_ReceiveData)
    SPI_I2S_SendData                         0x00002021   Thumb Code     4  stm32f10x_spi.o(i.SPI_I2S_SendData)
    SPI_Init                                 0x00002025   Thumb Code    56  stm32f10x_spi.o(i.SPI_Init)
    SVC_Handler                              0x0000205d   Thumb Code     2  stm32f10x_it.o(i.SVC_Handler)
    SYSTICK_ClearSystickVal                  0x0000205f   Thumb Code    10  bsp_systick.o(i.SYSTICK_ClearSystickVal)
    SYSTICK_Configuration                    0x00002069   Thumb Code    30  bsp_systick.o(i.SYSTICK_Configuration)
    SYSTICK_Delay10ms                        0x00002091   Thumb Code    22  bsp_systick.o(i.SYSTICK_Delay10ms)
    SYSTICK_GetVal                           0x000020ad   Thumb Code     8  bsp_systick.o(i.SYSTICK_GetVal)
    SYSTICK_get_time                         0x000020b5   Thumb Code     6  bsp_systick.o(i.SYSTICK_get_time)
    SetBitMask                               0x000020c1   Thumb Code    24  pn512.o(i.SetBitMask)
    SysTick_CLKSourceConfig                  0x00002181   Thumb Code    24  misc.o(i.SysTick_CLKSourceConfig)
    SysTick_Handler                          0x00002199   Thumb Code    10  stm32f10x_it.o(i.SysTick_Handler)
    SystemInit                               0x000021a9   Thumb Code    64  system_stm32f10x.o(i.SystemInit)
    TIM_Cmd                                  0x000021f9   Thumb Code    20  stm32f10x_tim.o(i.TIM_Cmd)
    TIM_CtrlPWMOutputs                       0x0000220d   Thumb Code    22  stm32f10x_tim.o(i.TIM_CtrlPWMOutputs)
    TIM_OC1Init                              0x00002225   Thumb Code   106  stm32f10x_tim.o(i.TIM_OC1Init)
    TIM_OC1PreloadConfig                     0x000022a5   Thumb Code    12  stm32f10x_tim.o(i.TIM_OC1PreloadConfig)
    TIM_TimeBaseInit                         0x000022b1   Thumb Code   114  stm32f10x_tim.o(i.TIM_TimeBaseInit)
    TYPE_AB_CardActive                       0x0000234d   Thumb Code   656  cicc_func.o(i.TYPE_AB_CardActive)
    TYPE_A_AntiMain                          0x000025e5   Thumb Code   412  cicc_func.o(i.TYPE_A_AntiMain)
    TYPE_A_Init                              0x00002789   Thumb Code    26  cicc_func.o(i.TYPE_A_Init)
    TYPE_A_PiccAnticoll                      0x000027ad   Thumb Code   158  cicc_func.o(i.TYPE_A_PiccAnticoll)
    TYPE_A_PiccHalt                          0x00002859   Thumb Code    70  cicc_func.o(i.TYPE_A_PiccHalt)
    TYPE_A_PiccPara                          0x000028ad   Thumb Code   120  cicc_iso14443.o(i.TYPE_A_PiccPara)
    TYPE_A_PiccRequest                       0x0000293d   Thumb Code   188  cicc_func.o(i.TYPE_A_PiccRequest)
    TYPE_A_PiccSelect                        0x00002a05   Thumb Code   164  cicc_func.o(i.TYPE_A_PiccSelect)
    TYPE_A_Removal                           0x00002ab5   Thumb Code    96  cicc_func.o(i.TYPE_A_Removal)
    TYPE_B_Attrib                            0x00002b15   Thumb Code   496  cicc_func.o(i.TYPE_B_Attrib)
    TYPE_B_Init                              0x00002d11   Thumb Code    20  cicc_func.o(i.TYPE_B_Init)
    TYPE_B_PiccHalt                          0x00002d29   Thumb Code    78  cicc_func.o(i.TYPE_B_PiccHalt)
    TYPE_B_PiccPara                          0x00002d81   Thumb Code    74  cicc_iso14443.o(i.TYPE_B_PiccPara)
    TYPE_B_PiccRequest                       0x00002de1   Thumb Code   300  cicc_func.o(i.TYPE_B_PiccRequest)
    TYPE_B_Removal                           0x00002f1d   Thumb Code   106  cicc_func.o(i.TYPE_B_Removal)
    UART4_Config_Baud                        0x00002f89   Thumb Code    58  bsp_usart.o(i.UART4_Config_Baud)
    UART4_Configuration                      0x00002fc9   Thumb Code   130  bsp_usart.o(i.UART4_Configuration)
    UART4_IRQHandler                         0x00003055   Thumb Code    36  stm32f10x_it.o(i.UART4_IRQHandler)
    UART4_ReceiveByte                        0x0000307d   Thumb Code    36  bsp_usart.o(i.UART4_ReceiveByte)
    UART4_SendData                           0x000030a5   Thumb Code    26  bsp_usart.o(i.UART4_SendData)
    UART4_set_IT_RXNE                        0x000030c5   Thumb Code    20  bsp_usart.o(i.UART4_set_IT_RXNE)
    USART1_IRQHandler                        0x000030dd   Thumb Code    36  stm32f10x_it.o(i.USART1_IRQHandler)
    USART2_IRQHandler                        0x00003105   Thumb Code    10  stm32f10x_it.o(i.USART2_IRQHandler)
    USART3_IRQHandler                        0x00003115   Thumb Code    30  stm32f10x_it.o(i.USART3_IRQHandler)
    USART_ClearFlag                          0x00003139   Thumb Code     6  stm32f10x_usart.o(i.USART_ClearFlag)
    USART_Cmd                                0x0000313f   Thumb Code    20  stm32f10x_usart.o(i.USART_Cmd)
    USART_Configuration                      0x00003155   Thumb Code   142  bsp_usart.o(i.USART_Configuration)
    USART_GetFlagStatus                      0x000031ed   Thumb Code    14  stm32f10x_usart.o(i.USART_GetFlagStatus)
    USART_GetITStatus                        0x000031fb   Thumb Code    62  stm32f10x_usart.o(i.USART_GetITStatus)
    USART_ITConfig                           0x00003239   Thumb Code    48  stm32f10x_usart.o(i.USART_ITConfig)
    USART_Init                               0x00003269   Thumb Code   166  stm32f10x_usart.o(i.USART_Init)
    USART_ReceiveData                        0x00003315   Thumb Code     8  stm32f10x_usart.o(i.USART_ReceiveData)
    USART_SendData                           0x0000331d   Thumb Code     8  stm32f10x_usart.o(i.USART_SendData)
    UsageFault_Handler                       0x00003325   Thumb Code     8  stm32f10x_it.o(i.UsageFault_Handler)
    WriteRawRC                               0x00003341   Thumb Code    38  pn512.o(i.WriteRawRC)
    __0printf                                0x00003369   Thumb Code    22  printfa.o(i.__0printf)
    __1printf                                0x00003369   Thumb Code     0  printfa.o(i.__0printf)
    __2printf                                0x00003369   Thumb Code     0  printfa.o(i.__0printf)
    __c89printf                              0x00003369   Thumb Code     0  printfa.o(i.__0printf)
    printf                                   0x00003369   Thumb Code     0  printfa.o(i.__0printf)
    __scatterload_copy                       0x00003389   Thumb Code    14  handlers.o(i.__scatterload_copy)
    __scatterload_null                       0x00003397   Thumb Code     2  handlers.o(i.__scatterload_null)
    __scatterload_zeroinit                   0x00003399   Thumb Code    14  handlers.o(i.__scatterload_zeroinit)
    _msdelay                                 0x0000350d   Thumb Code    18  cicc_func.o(i._msdelay)
    cicc_m1_PiccAuth_key                     0x00003c4f   Thumb Code    30  cicc_api.o(i.cicc_m1_PiccAuth_key)
    cicc_m1_PiccBlockRead                    0x00003c6d   Thumb Code    14  cicc_api.o(i.cicc_m1_PiccBlockRead)
    cicc_m1_PiccBlockWrite                   0x00003c7b   Thumb Code    14  cicc_api.o(i.cicc_m1_PiccBlockWrite)
    cicc_m1_ReqAntiSele                      0x00003c89   Thumb Code   134  cicc_api.o(i.cicc_m1_ReqAntiSele)
    cicc_m1_halt                             0x00003d0f   Thumb Code     4  cicc_api.o(i.cicc_m1_halt)
    delay_www                                0x00003d13   Thumb Code    36  cicc_iso14443.o(i.delay_www)
    fputc                                    0x00003d39   Thumb Code    30  bsp_usart.o(i.fputc)
    free                                     0x00003d5d   Thumb Code    76  malloc.o(i.free)
    isoBlockExchange                         0x00003dad   Thumb Code   506  cicc_iso14443.o(i.isoBlockExchange)
    isoRatsA                                 0x00003fbd   Thumb Code   176  cicc_iso14443.o(i.isoRatsA)
    m1_ReqAntiSele                           0x0000407d   Thumb Code    80  cicc_api.o(i.m1_ReqAntiSele)
    main                                     0x000040d1   Thumb Code    60  main.o(i.main)
    malloc                                   0x00004121   Thumb Code    92  malloc.o(i.malloc)
    nfcc_active_m1card                       0x0000418d   Thumb Code    56  nfc_commu.o(i.nfcc_active_m1card)
    nfcc_close_ant                           0x000041c5   Thumb Code    10  nfc_commu.o(i.nfcc_close_ant)
    nfcc_coll_m1card                         0x000041d1   Thumb Code    34  nfc_commu.o(i.nfcc_coll_m1card)
    nfcc_open_ant                            0x000041fd   Thumb Code    10  nfc_commu.o(i.nfcc_open_ant)
    nfcc_pwdauth                             0x00004209   Thumb Code    26  nfc_commu.o(i.nfcc_pwdauth)
    nfcc_read_sector                         0x0000422d   Thumb Code    20  nfc_commu.o(i.nfcc_read_sector)
    nfcc_request_m1card                      0x00004241   Thumb Code    50  nfc_commu.o(i.nfcc_request_m1card)
    nfcc_select_m1card                       0x00004275   Thumb Code    38  nfc_commu.o(i.nfcc_select_m1card)
    nfcc_write_sector                        0x000042a5   Thumb Code    16  nfc_commu.o(i.nfcc_write_sector)
    pcdSetRblock                             0x000042b5   Thumb Code    70  cicc_iso14443.o(i.pcdSetRblock)
    pcdSetSbrockWtx                          0x0000430d   Thumb Code   124  cicc_iso14443.o(i.pcdSetSbrockWtx)
    ptc_process                              0x00004395   Thumb Code    78  protocol_port.o(i.ptc_process)
    ptc_process_cmd_inquiry                  0x000043e3   Thumb Code   164  protocol_port.o(i.ptc_process_cmd_inquiry)
    ptc_process_cmd_main                     0x00004489   Thumb Code    34  protocol_port.o(i.ptc_process_cmd_main)
    ptc_process_cmd_set                      0x000044ad   Thumb Code   322  protocol_port.o(i.ptc_process_cmd_set)
    ptc_process_cmd_tested                   0x000045f5   Thumb Code   280  protocol_port.o(i.ptc_process_cmd_tested)
    ptc_process_cmd_trans                    0x0000470d   Thumb Code   382  protocol_port.o(i.ptc_process_cmd_trans)
    rc531_ClrBitMask                         0x0000488b   Thumb Code    24  cicc_rc531.o(i.rc531_ClrBitMask)
    rc531_FlushFIFO                          0x000048a3   Thumb Code    20  cicc_rc531.o(i.rc531_FlushFIFO)
    rc531_ISR                                0x000048b7   Thumb Code   222  cicc_mifare1.o(i.rc531_ISR)
    rc531_PcdCmd                             0x00004995   Thumb Code   708  cicc_rc531.o(i.rc531_PcdCmd)
    rc531_PcdConfig_A                        0x00004c5d   Thumb Code   196  cicc_rc531.o(i.rc531_PcdConfig_A)
    rc531_PcdConfig_B                        0x00004d25   Thumb Code   204  cicc_rc531.o(i.rc531_PcdConfig_B)
    rc531_PcdReset                           0x00004df5   Thumb Code    44  cicc_rc531.o(i.rc531_PcdReset)
    rc531_PcdRfReset                         0x00004e29   Thumb Code    76  cicc_rc531.o(i.rc531_PcdRfReset)
    rc531_PcdSetFwt                          0x00004e7d   Thumb Code    30  cicc_rc531.o(i.rc531_PcdSetFwt)
    rc531_PcdSetTmo                          0x00004e9b   Thumb Code   118  cicc_rc531.o(i.rc531_PcdSetTmo)
    rc531_Read                               0x00004f11   Thumb Code     4  cicc_rc531.o(i.rc531_Read)
    rc531_SetBitMask                         0x00004f15   Thumb Code    24  cicc_rc531.o(i.rc531_SetBitMask)
    rc531_Write                              0x00004f2d   Thumb Code     4  cicc_rc531.o(i.rc531_Write)
    rc531_m1PcdCmd                           0x00004f31   Thumb Code   442  cicc_mifare1.o(i.rc531_m1PcdCmd)
    rc531c_active_cpua_rfid                  0x000050eb   Thumb Code    46  rc531_commu.o(i.rc531c_active_cpua_rfid)
    rc531c_active_m1_rfid                    0x00005119   Thumb Code    46  rc531_commu.o(i.rc531c_active_m1_rfid)
    rc531c_apdu_rfid                         0x00005147   Thumb Code    60  rc531_commu.o(i.rc531c_apdu_rfid)
    rc531c_close_rfid                        0x00005183   Thumb Code    16  rc531_commu.o(i.rc531c_close_rfid)
    rc531c_coll_cpuB_rfid                    0x00005195   Thumb Code    98  rc531_commu.o(i.rc531c_coll_cpuB_rfid)
    rc531c_coll_cpua_rfid                    0x00005249   Thumb Code    34  rc531_commu.o(i.rc531c_coll_cpua_rfid)
    rc531c_coll_m1_rfid                      0x00005271   Thumb Code    32  rc531_commu.o(i.rc531c_coll_m1_rfid)
    rc531c_coll_m1card_rfid                  0x00005295   Thumb Code    36  rc531_commu.o(i.rc531c_coll_m1card_rfid)
    rc531c_coll_tested_rfid                  0x000052b9   Thumb Code   114  rc531_commu.o(i.rc531c_coll_tested_rfid)
    rc531c_find_rfid_card                    0x0000532d   Thumb Code   182  rc531_commu.o(i.rc531c_find_rfid_card)
    rc531c_halt_m1_rfid                      0x000053e9   Thumb Code    34  rc531_commu.o(i.rc531c_halt_m1_rfid)
    rc531c_m1pwd_rfid                        0x00005419   Thumb Code    36  rc531_commu.o(i.rc531c_m1pwd_rfid)
    rc531c_m1read_rfid                       0x00005441   Thumb Code    10  rc531_commu.o(i.rc531c_m1read_rfid)
    rc531c_m1write_rfid                      0x0000544b   Thumb Code    10  rc531_commu.o(i.rc531c_m1write_rfid)
    rc531c_move_rfid_card                    0x00005455   Thumb Code    36  rc531_commu.o(i.rc531c_move_rfid_card)
    rc531c_open_rfid                         0x00005479   Thumb Code    12  rc531_commu.o(i.rc531c_open_rfid)
    rc531c_read_cpucard_id                   0x00005485   Thumb Code    86  rc531_commu.o(i.rc531c_read_cpucard_id)
    rc531c_read_m1card_id                    0x000054db   Thumb Code    66  rc531_commu.o(i.rc531c_read_m1card_id)
    rc531c_req_cpua_rfid                     0x0000551d   Thumb Code   108  rc531_commu.o(i.rc531c_req_cpua_rfid)
    rc531c_req_m1_rfid                       0x000055a5   Thumb Code   106  rc531_commu.o(i.rc531c_req_m1_rfid)
    rc531c_select_cpua_rfid                  0x0000562d   Thumb Code    42  rc531_commu.o(i.rc531c_select_cpua_rfid)
    rc531c_select_m1_rfid                    0x00005665   Thumb Code    54  rc531_commu.o(i.rc531c_select_m1_rfid)
    spi_pn512_configuration                  0x000056b1   Thumb Code   162  bsp_spi.o(i.spi_pn512_configuration)
    spi_pn512_readwrite_byte                 0x0000575d   Thumb Code    48  bsp_spi.o(i.spi_pn512_readwrite_byte)
    spi_pn512_set_nss                        0x00005791   Thumb Code    20  bsp_spi.o(i.spi_pn512_set_nss)
    spi_pn512_set_rst                        0x000057a9   Thumb Code    18  bsp_spi.o(i.spi_pn512_set_rst)
    spi_rc531_configuration                  0x000057c1   Thumb Code   156  bsp_spi.o(i.spi_rc531_configuration)
    spi_rc531_readwrite_byte                 0x00005865   Thumb Code    48  bsp_spi.o(i.spi_rc531_readwrite_byte)
    spi_rc531_set_nss                        0x00005899   Thumb Code    18  bsp_spi.o(i.spi_rc531_set_nss)
    spi_rc531_set_rst                        0x000058b1   Thumb Code    18  bsp_spi.o(i.spi_rc531_set_rst)
    u7se32_rc531_interface                   0x000058c9   Thumb Code    40  cicc_spi.o(i.u7se32_rc531_interface)
    u7se32_rc531_reset                       0x000058f1   Thumb Code    36  cicc_spi.o(i.u7se32_rc531_reset)
    u7se32_spi_read                          0x00005915   Thumb Code    56  cicc_spi.o(i.u7se32_spi_read)
    u7se32_spi_write                         0x0000594d   Thumb Code    50  cicc_spi.o(i.u7se32_spi_write)
    write_add                                0x00005981   Thumb Code    66  lf125k.o(i.write_add)
    write_data                               0x000059c9   Thumb Code    56  lf125k.o(i.write_data)
    write_lock                               0x00005a05   Thumb Code    12  lf125k.o(i.write_lock)
    write_od                                 0x00005a15   Thumb Code    84  lf125k.o(i.write_od)
    firmware                                 0x00005a74   Data       13143  rfid_firmware.o(.constdata)
    Region$$Table$$Base                      0x00008dcc   Number         0  anon$$obj.o(Region$$Table)
    Region$$Table$$Limit                     0x00008dec   Number         0  anon$$obj.o(Region$$Table)
    CRC16_H                                  0x20000000   Data         256  crc16.o(.data)
    CRC16_L                                  0x20000100   Data         256  crc16.o(.data)
    uhf_serial_flag                          0x20000200   Data           1  protocol_port.o(.data)
    uid_len                                  0x20000201   Data           1  nfc_commu.o(.data)
    volue                                    0x20000202   Data           1  lf125k.o(.data)
    tap                                      0x20000203   Data           1  lf125k.o(.data)
    data_tap                                 0x20000204   Data           6  lf125k.o(.data)
    Req_t                                    0x2000020a   Data           1  cicc_api.o(.data)
    Rfid_type                                0x2000020b   Data           1  cicc_api.o(.data)
    Rfid_card                                0x2000020c   Data           1  cicc_api.o(.data)
    Atq1                                     0x2000020d   Data           1  cicc_api.o(.data)
    Atq2                                     0x2000020e   Data           1  cicc_api.o(.data)
    Cid                                      0x2000020f   Data           8  cicc_api.o(.data)
    M1_sta                                   0x20000217   Data           1  cicc_api.o(.data)
    flag_aa                                  0x20000218   Data           1  cicc_func.o(.data)
    flag_bb                                  0x20000219   Data           1  cicc_func.o(.data)
    m1austa                                  0x2000021a   Data           1  cicc_func.o(.data)
    Rack_PiccChain                           0x2000021b   Data           1  cicc_iso14443.o(.data)
    bBlockNumber                             0x2000021c   Data           1  cicc_iso14443.o(.data)
    ctlcfg                                   0x2000021d   Data         102  cicc_public.o(.data)
    not_ios14443_4                           0x20000283   Data           1  cicc_public.o(.data)
    data_from_reader                         0x20000284   Data           1  rfid_firmware.o(.data)
    needDownload                             0x20000285   Data           1  rfid_firmware.o(.data)
    jiffies                                  0x20000288   Data           4  bsp_systick.o(.data)
    __stdout                                 0x200002a0   Data           4  stdout.o(.data)
    __microlib_freelist                      0x200002a4   Data           4  mvars.o(.data)
    __microlib_freelist_initialised          0x200002a8   Data           4  mvars.o(.data)
    protocol                                 0x200002ac   Data         264  protocol.o(.bss)
    uid                                      0x200003b4   Data          10  nfc_commu.o(.bss)
    Rec_Buffer                               0x200003be   Data          64  cicc_func.o(.bss)
    Send_Buffer                              0x200003fe   Data          64  cicc_func.o(.bss)
    MSndBuffer                               0x2000043e   Data         300  cicc_iso14443.o(.bss)
    MRcvBuffer                               0x2000056a   Data         300  cicc_iso14443.o(.bss)
    R_Buffer                                 0x20000696   Data          64  cicc_mifare1.o(.bss)
    S_Buffer                                 0x200006d6   Data          64  cicc_mifare1.o(.bss)
    MInfo                                    0x20000718   Data          20  cicc_public.o(.bss)
    __heap_base                              0x20000730   Data           0  startup_stm32f10x_hd.o(HEAP)
    __heap_limit                             0x20000b30   Data           0  startup_stm32f10x_hd.o(HEAP)
    __initial_sp                             0x20000f30   Data           0  startup_stm32f10x_hd.o(STACK)



==============================================================================

Memory Map of the image

  Image Entry point : 0x00000131

  Load Region LR_IROM1 (Base: 0x00000000, Size: 0x00009098, Max: 0x00040000, ABSOLUTE, COMPRESSED[0x00008f28])

    Execution Region ER_IROM1 (Base: 0x00000000, Size: 0x00008dec, Max: 0x00040000, ABSOLUTE)

    Base Addr    Size         Type   Attr      Idx    E Section Name        Object

    0x00000000   0x00000130   Data   RO         5004    RESET               startup_stm32f10x_hd.o
    0x00000130   0x00000000   Code   RO         5009  * .ARM.Collect$$$$00000000  mc_w.l(entry.o)
    0x00000130   0x00000004   Code   RO         5330    .ARM.Collect$$$$00000001  mc_w.l(entry2.o)
    0x00000134   0x00000004   Code   RO         5333    .ARM.Collect$$$$00000004  mc_w.l(entry5.o)
    0x00000138   0x00000000   Code   RO         5335    .ARM.Collect$$$$00000008  mc_w.l(entry7b.o)
    0x00000138   0x00000000   Code   RO         5337    .ARM.Collect$$$$0000000A  mc_w.l(entry8b.o)
    0x00000138   0x00000008   Code   RO         5338    .ARM.Collect$$$$0000000B  mc_w.l(entry9a.o)
    0x00000140   0x00000000   Code   RO         5340    .ARM.Collect$$$$0000000D  mc_w.l(entry10a.o)
    0x00000140   0x00000000   Code   RO         5342    .ARM.Collect$$$$0000000F  mc_w.l(entry11a.o)
    0x00000140   0x00000004   Code   RO         5331    .ARM.Collect$$$$00002712  mc_w.l(entry2.o)
    0x00000144   0x00000024   Code   RO         5005    .text               startup_stm32f10x_hd.o
    0x00000168   0x00000024   Code   RO         5015    .text               mc_w.l(memcpya.o)
    0x0000018c   0x00000024   Code   RO         5017    .text               mc_w.l(memseta.o)
    0x000001b0   0x0000001a   Code   RO         5025    .text               mc_w.l(memcmp.o)
    0x000001ca   0x000000de   Code   RO         5324    .text               mf_w.l(ddiv.o)
    0x000002a8   0x0000002c   Code   RO         5349    .text               mc_w.l(uidiv.o)
    0x000002d4   0x00000062   Code   RO         5351    .text               mc_w.l(uldiv.o)
    0x00000336   0x00000000   Code   RO         5378    .text               mc_w.l(iusefp.o)
    0x00000336   0x000000ba   Code   RO         5379    .text               mf_w.l(depilogue.o)
    0x000003f0   0x0000014e   Code   RO         5381    .text               mf_w.l(dadd.o)
    0x0000053e   0x000000e4   Code   RO         5383    .text               mf_w.l(dmul.o)
    0x00000622   0x00000030   Code   RO         5385    .text               mf_w.l(dfixul.o)
    0x00000652   0x00000002   PAD
    0x00000654   0x00000030   Code   RO         5387    .text               mf_w.l(cdrcmple.o)
    0x00000684   0x00000024   Code   RO         5389    .text               mc_w.l(init.o)
    0x000006a8   0x0000001e   Code   RO         5391    .text               mc_w.l(llshl.o)
    0x000006c6   0x00000020   Code   RO         5393    .text               mc_w.l(llushr.o)
    0x000006e6   0x00000024   Code   RO         5395    .text               mc_w.l(llsshr.o)
    0x0000070a   0x00000056   Code   RO         5420    .text               mc_w.l(__dczerorl2.o)
    0x00000760   0x0000001c   Code   RO         2541    i.BusFault_Handler  stm32f10x_it.o
    0x0000077c   0x00000030   Code   RO          350    i.CRC16_calc        crc16.o
    0x000007ac   0x00000066   Code   RO         1625    i.CalulateCRC       pn512.o
    0x00000812   0x00000044   Code   RO          843    i.Cicc_Active       cicc_api.o
    0x00000856   0x00000002   PAD
    0x00000858   0x00000028   Code   RO          844    i.Cicc_ApduExchange  cicc_api.o
    0x00000880   0x00000014   Code   RO          845    i.Cicc_PcdInit      cicc_api.o
    0x00000894   0x00000004   Code   RO          846    i.Cicc_PiccDeslect  cicc_api.o
    0x00000898   0x000000f8   Code   RO          847    i.Cicc_PiccSeekActive  cicc_api.o
    0x00000990   0x00000010   Code   RO          848    i.Cicc_WaitPiccRemove  cicc_api.o
    0x000009a0   0x00000018   Code   RO         1627    i.ClearBitMask      pn512.o
    0x000009b8   0x00000058   Code   RO          688    i.Data_Processing   lf125k.o
    0x00000a10   0x00000002   Code   RO         2542    i.DebugMon_Handler  stm32f10x_it.o
    0x00000a12   0x00000012   Code   RO         1628    i.Delay_us          pn512.o
    0x00000a24   0x00000010   Code   RO         1521    i.Delayus           rfid_firmware.o
    0x00000a34   0x000000d0   Code   RO         1522    i.Download_FW       rfid_firmware.o
    0x00000b04   0x00000002   Code   RO         1629    i.EXTI0_IRQHandler  pn512.o
    0x00000b06   0x0000002e   Code   RO         2543    i.EXTI15_10_IRQHandler  stm32f10x_it.o
    0x00000b34   0x0000001c   Code   RO         2544    i.EXTI9_5_IRQHandler  stm32f10x_it.o
    0x00000b50   0x0000000c   Code   RO         3307    i.EXTI_ClearITPendingBit  stm32f10x_exti.o
    0x00000b5c   0x00000020   Code   RO         3311    i.EXTI_GetITStatus  stm32f10x_exti.o
    0x00000b7c   0x000000a2   Code   RO         3547    i.GPIO_Init         stm32f10x_gpio.o
    0x00000c1e   0x00000002   PAD
    0x00000c20   0x00000044   Code   RO         2987    i.GPIO_LF125K_configuration  bsp_gpio.o
    0x00000c64   0x0000000e   Code   RO         3551    i.GPIO_ReadInputDataBit  stm32f10x_gpio.o
    0x00000c72   0x00000002   PAD
    0x00000c74   0x00000050   Code   RO         2988    i.GPIO_Uhf_configuration  bsp_gpio.o
    0x00000cc4   0x0000000a   Code   RO         3558    i.GPIO_WriteBit     stm32f10x_gpio.o
    0x00000cce   0x00000002   PAD
    0x00000cd0   0x00000010   Code   RO         2989    i.GPIO_read_lf125k_data  bsp_gpio.o
    0x00000ce0   0x00000018   Code   RO         2990    i.GPIO_set_lf125k_clk  bsp_gpio.o
    0x00000cf8   0x00000010   Code   RO         2991    i.GPIO_uhf_cen_disable  bsp_gpio.o
    0x00000d08   0x00000010   Code   RO         2992    i.GPIO_uhf_cen_enable  bsp_gpio.o
    0x00000d18   0x00000010   Code   RO         2994    i.GPIO_uhf_power_on  bsp_gpio.o
    0x00000d28   0x00000038   Code   RO         2545    i.HardFault_Handler  stm32f10x_it.o
    0x00000d60   0x00000004   Code   RO         1107    i.ISO_PPS_B         cicc_iso14443.o
    0x00000d64   0x00000044   Code   RO          689    i.LF125K_card_init  lf125k.o
    0x00000da8   0x00000058   Code   RO          691    i.LF125K_clear_pwd  lf125k.o
    0x00000e00   0x00000006   Code   RO          694    i.LF125K_init       lf125k.o
    0x00000e06   0x0000005c   Code   RO          696    i.LF125K_read_0_page  lf125k.o
    0x00000e62   0x00000002   PAD
    0x00000e64   0x00000048   Code   RO          697    i.LF125K_read_0_page_protect  lf125k.o
    0x00000eac   0x00000044   Code   RO          698    i.LF125K_read_1_page  lf125k.o
    0x00000ef0   0x00000040   Code   RO          700    i.LF125K_set_pwd    lf125k.o
    0x00000f30   0x00000074   Code   RO          701    i.LF125K_write_0_page  lf125k.o
    0x00000fa4   0x00000068   Code   RO          703    i.LF125K_write_0_page_protect  lf125k.o
    0x0000100c   0x0000002e   Code   RO         1180    i.M1_HostCodeKey    cicc_mifare1.o
    0x0000103a   0x00000002   PAD
    0x0000103c   0x000000a0   Code   RO         1186    i.M1_PiccAuthState  cicc_mifare1.o
    0x000010dc   0x0000004c   Code   RO         1187    i.M1_PiccAuth_key   cicc_mifare1.o
    0x00001128   0x000000a8   Code   RO         1188    i.M1_PiccBlockRead  cicc_mifare1.o
    0x000011d0   0x000000b8   Code   RO         1189    i.M1_PiccBlockWrite  cicc_mifare1.o
    0x00001288   0x0000003e   Code   RO         1631    i.M500PcdReset      pn512.o
    0x000012c6   0x00000002   PAD
    0x000012c8   0x0000001c   Code   RO         2546    i.MemManage_Handler  stm32f10x_it.o
    0x000012e4   0x00000010   Code   RO         1632    i.MfConfig          pn512.o
    0x000012f4   0x0000002a   Code   RO         2410    i.My_InitTask       my_inittask.o
    0x0000131e   0x00000002   Code   RO         2547    i.NMI_Handler       stm32f10x_it.o
    0x00001320   0x00000074   Code   RO         2411    i.NVIC_Configuration  my_inittask.o
    0x00001394   0x00000064   Code   RO         3079    i.NVIC_Init         misc.o
    0x000013f8   0x00000014   Code   RO         3080    i.NVIC_PriorityGroupConfig  misc.o
    0x0000140c   0x00000004   Code   RO         1633    i.PN512PcdConfig    pn512.o
    0x00001410   0x000001a2   Code   RO         1634    i.PN512PcdConfigISOType  pn512.o
    0x000015b2   0x00000016   Code   RO         1635    i.PN512_Init        pn512.o
    0x000015c8   0x00000070   Code   RO          148    i.PTC_ACK_CMD       protocol.o
    0x00001638   0x0000006e   Code   RO          149    i.PTC_ACK_inquiry   protocol.o
    0x000016a6   0x00000002   PAD
    0x000016a8   0x00000058   Code   RO          150    i.PTC_ACK_success_cmd  protocol.o
    0x00001700   0x00000060   Code   RO          153    i.PTC_ACK_unrecognized_cmd  protocol.o
    0x00001760   0x00000010   Code   RO          154    i.PTC_CRC16_disable  protocol.o
    0x00001770   0x00000010   Code   RO          155    i.PTC_CRC16_enable  protocol.o
    0x00001780   0x0000001c   Code   RO          156    i.PTC_detect_crc16cmd  protocol.o
    0x0000179c   0x00000020   Code   RO          157    i.PTC_get_command   protocol.o
    0x000017bc   0x00000028   Code   RO          158    i.PTC_get_data      protocol.o
    0x000017e4   0x00000088   Code   RO          159    i.PTC_judge_message  protocol.o
    0x0000186c   0x0000004c   Code   RO          160    i.PTC_receive_data  protocol.o
    0x000018b8   0x0000000c   Code   RO          161    i.PTC_refresh_receive  protocol.o
    0x000018c4   0x00000020   Code   RO          162    i.PTC_sendbyte      protocol.o
    0x000018e4   0x0000000c   Code   RO          163    i.PTC_sendbyte_n    protocol.o
    0x000018f0   0x00000010   Code   RO          164    i.PTC_struct_init   protocol.o
    0x00001900   0x00000098   Code   RO         3055    i.PWM_configuration  bsp_pwm.o
    0x00001998   0x0000000c   Code   RO         3056    i.PWM_start_beep    bsp_pwm.o
    0x000019a4   0x0000000c   Code   RO         3057    i.PWM_stop_beep     bsp_pwm.o
    0x000019b0   0x00000008   Code   RO         1636    i.PcdAntennaOff     pn512.o
    0x000019b8   0x00000028   Code   RO         1637    i.PcdAntennaOn      pn512.o
    0x000019e0   0x000000a6   Code   RO         1638    i.PcdAnticoll       pn512.o
    0x00001a86   0x00000002   PAD
    0x00001a88   0x00000074   Code   RO         1639    i.PcdAuthState      pn512.o
    0x00001afc   0x00000116   Code   RO         1641    i.PcdComMF522       pn512.o
    0x00001c12   0x00000058   Code   RO         1643    i.PcdRead           pn512.o
    0x00001c6a   0x0000005a   Code   RO         1644    i.PcdRequest        pn512.o
    0x00001cc4   0x0000007a   Code   RO         1645    i.PcdSelect         pn512.o
    0x00001d3e   0x0000008e   Code   RO         1647    i.PcdWrite          pn512.o
    0x00001dcc   0x00000002   Code   RO         2548    i.PendSV_Handler    stm32f10x_it.o
    0x00001dce   0x00000002   PAD
    0x00001dd0   0x00000018   Code   RO         3660    i.RCC_APB1PeriphClockCmd  stm32f10x_rcc.o
    0x00001de8   0x00000018   Code   RO         3662    i.RCC_APB2PeriphClockCmd  stm32f10x_rcc.o
    0x00001e00   0x00000090   Code   RO         3670    i.RCC_GetClocksFreq  stm32f10x_rcc.o
    0x00001e90   0x0000010c   Code   RO          704    i.REM_Processing    lf125k.o
    0x00001f9c   0x00000028   Code   RO         1648    i.ReadRawRC         pn512.o
    0x00001fc4   0x00000012   Code   RO         1527    i.Rece_Data_Uart0   rfid_firmware.o
    0x00001fd6   0x00000014   Code   RO         1286    i.ResetInfo         cicc_public.o
    0x00001fea   0x00000010   Code   RO         1287    i.ResetInfo_len     cicc_public.o
    0x00001ffa   0x00000014   Code   RO         4049    i.SPI_Cmd           stm32f10x_spi.o
    0x0000200e   0x0000000e   Code   RO         4057    i.SPI_I2S_GetFlagStatus  stm32f10x_spi.o
    0x0000201c   0x00000004   Code   RO         4060    i.SPI_I2S_ReceiveData  stm32f10x_spi.o
    0x00002020   0x00000004   Code   RO         4061    i.SPI_I2S_SendData  stm32f10x_spi.o
    0x00002024   0x00000038   Code   RO         4062    i.SPI_Init          stm32f10x_spi.o
    0x0000205c   0x00000002   Code   RO         2549    i.SVC_Handler       stm32f10x_it.o
    0x0000205e   0x0000000a   Code   RO         2727    i.SYSTICK_ClearSystickVal  bsp_systick.o
    0x00002068   0x00000028   Code   RO         2728    i.SYSTICK_Configuration  bsp_systick.o
    0x00002090   0x0000001c   Code   RO         2729    i.SYSTICK_Delay10ms  bsp_systick.o
    0x000020ac   0x00000008   Code   RO         2730    i.SYSTICK_GetVal    bsp_systick.o
    0x000020b4   0x0000000c   Code   RO         2733    i.SYSTICK_get_time  bsp_systick.o
    0x000020c0   0x00000018   Code   RO         1651    i.SetBitMask        pn512.o
    0x000020d8   0x000000a8   Code   RO         3198    i.SetSysClockTo72   system_stm32f10x.o
    0x00002180   0x00000018   Code   RO         3083    i.SysTick_CLKSourceConfig  misc.o
    0x00002198   0x00000010   Code   RO         2550    i.SysTick_Handler   stm32f10x_it.o
    0x000021a8   0x00000050   Code   RO         3200    i.SystemInit        system_stm32f10x.o
    0x000021f8   0x00000014   Code   RO         4469    i.TIM_Cmd           stm32f10x_tim.o
    0x0000220c   0x00000016   Code   RO         4471    i.TIM_CtrlPWMOutputs  stm32f10x_tim.o
    0x00002222   0x00000002   PAD
    0x00002224   0x00000080   Code   RO         4498    i.TIM_OC1Init       stm32f10x_tim.o
    0x000022a4   0x0000000c   Code   RO         4501    i.TIM_OC1PreloadConfig  stm32f10x_tim.o
    0x000022b0   0x0000009c   Code   RO         4540    i.TIM_TimeBaseInit  stm32f10x_tim.o
    0x0000234c   0x00000298   Code   RO         1008    i.TYPE_AB_CardActive  cicc_func.o
    0x000025e4   0x000001a4   Code   RO         1009    i.TYPE_A_AntiMain   cicc_func.o
    0x00002788   0x00000024   Code   RO         1010    i.TYPE_A_Init       cicc_func.o
    0x000027ac   0x000000ac   Code   RO         1011    i.TYPE_A_PiccAnticoll  cicc_func.o
    0x00002858   0x00000054   Code   RO         1012    i.TYPE_A_PiccHalt   cicc_func.o
    0x000028ac   0x00000090   Code   RO         1109    i.TYPE_A_PiccPara   cicc_iso14443.o
    0x0000293c   0x000000c8   Code   RO         1013    i.TYPE_A_PiccRequest  cicc_func.o
    0x00002a04   0x000000b0   Code   RO         1014    i.TYPE_A_PiccSelect  cicc_func.o
    0x00002ab4   0x00000060   Code   RO         1015    i.TYPE_A_Removal    cicc_func.o
    0x00002b14   0x000001fc   Code   RO         1016    i.TYPE_B_Attrib     cicc_func.o
    0x00002d10   0x00000018   Code   RO         1017    i.TYPE_B_Init       cicc_func.o
    0x00002d28   0x00000058   Code   RO         1018    i.TYPE_B_PiccHalt   cicc_func.o
    0x00002d80   0x00000060   Code   RO         1110    i.TYPE_B_PiccPara   cicc_iso14443.o
    0x00002de0   0x0000013c   Code   RO         1019    i.TYPE_B_PiccRequest  cicc_func.o
    0x00002f1c   0x0000006a   Code   RO         1020    i.TYPE_B_Removal    cicc_func.o
    0x00002f86   0x00000002   PAD
    0x00002f88   0x00000040   Code   RO         2864    i.UART4_Config_Baud  bsp_usart.o
    0x00002fc8   0x0000008c   Code   RO         2865    i.UART4_Configuration  bsp_usart.o
    0x00003054   0x00000028   Code   RO         2551    i.UART4_IRQHandler  stm32f10x_it.o
    0x0000307c   0x00000028   Code   RO         2866    i.UART4_ReceiveByte  bsp_usart.o
    0x000030a4   0x00000020   Code   RO         2867    i.UART4_SendData    bsp_usart.o
    0x000030c4   0x00000018   Code   RO         2868    i.UART4_set_IT_RXNE  bsp_usart.o
    0x000030dc   0x00000028   Code   RO         2552    i.USART1_IRQHandler  stm32f10x_it.o
    0x00003104   0x00000010   Code   RO         2553    i.USART2_IRQHandler  stm32f10x_it.o
    0x00003114   0x00000024   Code   RO         2554    i.USART3_IRQHandler  stm32f10x_it.o
    0x00003138   0x00000006   Code   RO         3861    i.USART_ClearFlag   stm32f10x_usart.o
    0x0000313e   0x00000014   Code   RO         3865    i.USART_Cmd         stm32f10x_usart.o
    0x00003152   0x00000002   PAD
    0x00003154   0x00000098   Code   RO         2871    i.USART_Configuration  bsp_usart.o
    0x000031ec   0x0000000e   Code   RO         3868    i.USART_GetFlagStatus  stm32f10x_usart.o
    0x000031fa   0x0000003e   Code   RO         3869    i.USART_GetITStatus  stm32f10x_usart.o
    0x00003238   0x00000030   Code   RO         3871    i.USART_ITConfig    stm32f10x_usart.o
    0x00003268   0x000000ac   Code   RO         3872    i.USART_Init        stm32f10x_usart.o
    0x00003314   0x00000008   Code   RO         3879    i.USART_ReceiveData  stm32f10x_usart.o
    0x0000331c   0x00000008   Code   RO         3882    i.USART_SendData    stm32f10x_usart.o
    0x00003324   0x0000001c   Code   RO         2555    i.UsageFault_Handler  stm32f10x_it.o
    0x00003340   0x00000026   Code   RO         1653    i.WriteRawRC        pn512.o
    0x00003366   0x00000002   PAD
    0x00003368   0x00000020   Code   RO         5266    i.__0printf         mc_w.l(printfa.o)
    0x00003388   0x0000000e   Code   RO         5414    i.__scatterload_copy  mc_w.l(handlers.o)
    0x00003396   0x00000002   Code   RO         5415    i.__scatterload_null  mc_w.l(handlers.o)
    0x00003398   0x0000000e   Code   RO         5416    i.__scatterload_zeroinit  mc_w.l(handlers.o)
    0x000033a6   0x00000002   PAD
    0x000033a8   0x00000164   Code   RO         5273    i._fp_digits        mc_w.l(printfa.o)
    0x0000350c   0x00000012   Code   RO         1022    i._msdelay          cicc_func.o
    0x0000351e   0x00000002   PAD
    0x00003520   0x000006dc   Code   RO         5274    i._printf_core      mc_w.l(printfa.o)
    0x00003bfc   0x00000024   Code   RO         5275    i._printf_post_padding  mc_w.l(printfa.o)
    0x00003c20   0x0000002e   Code   RO         5276    i._printf_pre_padding  mc_w.l(printfa.o)
    0x00003c4e   0x0000001e   Code   RO          850    i.cicc_m1_PiccAuth_key  cicc_api.o
    0x00003c6c   0x0000000e   Code   RO          851    i.cicc_m1_PiccBlockRead  cicc_api.o
    0x00003c7a   0x0000000e   Code   RO          852    i.cicc_m1_PiccBlockWrite  cicc_api.o
    0x00003c88   0x00000086   Code   RO          857    i.cicc_m1_ReqAntiSele  cicc_api.o
    0x00003d0e   0x00000004   Code   RO          858    i.cicc_m1_halt      cicc_api.o
    0x00003d12   0x00000024   Code   RO         1111    i.delay_www         cicc_iso14443.o
    0x00003d36   0x00000002   PAD
    0x00003d38   0x00000024   Code   RO         2873    i.fputc             bsp_usart.o
    0x00003d5c   0x00000050   Code   RO         5294    i.free              mc_w.l(malloc.o)
    0x00003dac   0x00000210   Code   RO         1112    i.isoBlockExchange  cicc_iso14443.o
    0x00003fbc   0x000000c0   Code   RO         1114    i.isoRatsA          cicc_iso14443.o
    0x0000407c   0x00000054   Code   RO          861    i.m1_ReqAntiSele    cicc_api.o
    0x000040d0   0x00000050   Code   RO            2    i.main              main.o
    0x00004120   0x0000006c   Code   RO         5295    i.malloc            mc_w.l(malloc.o)
    0x0000418c   0x00000038   Code   RO          621    i.nfcc_active_m1card  nfc_commu.o
    0x000041c4   0x0000000a   Code   RO          622    i.nfcc_close_ant    nfc_commu.o
    0x000041ce   0x00000002   PAD
    0x000041d0   0x0000002c   Code   RO          623    i.nfcc_coll_m1card  nfc_commu.o
    0x000041fc   0x0000000a   Code   RO          624    i.nfcc_open_ant     nfc_commu.o
    0x00004206   0x00000002   PAD
    0x00004208   0x00000024   Code   RO          625    i.nfcc_pwdauth      nfc_commu.o
    0x0000422c   0x00000014   Code   RO          626    i.nfcc_read_sector  nfc_commu.o
    0x00004240   0x00000032   Code   RO          627    i.nfcc_request_m1card  nfc_commu.o
    0x00004272   0x00000002   PAD
    0x00004274   0x00000030   Code   RO          628    i.nfcc_select_m1card  nfc_commu.o
    0x000042a4   0x00000010   Code   RO          629    i.nfcc_write_sector  nfc_commu.o
    0x000042b4   0x00000058   Code   RO         1115    i.pcdSetRblock      cicc_iso14443.o
    0x0000430c   0x00000088   Code   RO         1116    i.pcdSetSbrockWtx   cicc_iso14443.o
    0x00004394   0x0000004e   Code   RO          365    i.ptc_process       protocol_port.o
    0x000043e2   0x000000a4   Code   RO          366    i.ptc_process_cmd_inquiry  protocol_port.o
    0x00004486   0x00000002   PAD
    0x00004488   0x00000022   Code   RO          367    i.ptc_process_cmd_main  protocol_port.o
    0x000044aa   0x00000002   PAD
    0x000044ac   0x00000148   Code   RO          368    i.ptc_process_cmd_set  protocol_port.o
    0x000045f4   0x00000118   Code   RO          369    i.ptc_process_cmd_tested  protocol_port.o
    0x0000470c   0x0000017e   Code   RO          370    i.ptc_process_cmd_trans  protocol_port.o
    0x0000488a   0x00000018   Code   RO         1309    i.rc531_ClrBitMask  cicc_rc531.o
    0x000048a2   0x00000014   Code   RO         1310    i.rc531_FlushFIFO   cicc_rc531.o
    0x000048b6   0x000000de   Code   RO         1194    i.rc531_ISR         cicc_mifare1.o
    0x00004994   0x000002c8   Code   RO         1311    i.rc531_PcdCmd      cicc_rc531.o
    0x00004c5c   0x000000c8   Code   RO         1312    i.rc531_PcdConfig_A  cicc_rc531.o
    0x00004d24   0x000000d0   Code   RO         1313    i.rc531_PcdConfig_B  cicc_rc531.o
    0x00004df4   0x00000034   Code   RO         1315    i.rc531_PcdReset    cicc_rc531.o
    0x00004e28   0x00000054   Code   RO         1316    i.rc531_PcdRfReset  cicc_rc531.o
    0x00004e7c   0x0000001e   Code   RO         1317    i.rc531_PcdSetFwt   cicc_rc531.o
    0x00004e9a   0x00000076   Code   RO         1318    i.rc531_PcdSetTmo   cicc_rc531.o
    0x00004f10   0x00000004   Code   RO         1319    i.rc531_Read        cicc_rc531.o
    0x00004f14   0x00000018   Code   RO         1320    i.rc531_SetBitMask  cicc_rc531.o
    0x00004f2c   0x00000004   Code   RO         1321    i.rc531_Write       cicc_rc531.o
    0x00004f30   0x000001ba   Code   RO         1195    i.rc531_m1PcdCmd    cicc_mifare1.o
    0x000050ea   0x0000002e   Code   RO          440    i.rc531c_active_cpua_rfid  rc531_commu.o
    0x00005118   0x0000002e   Code   RO          441    i.rc531c_active_m1_rfid  rc531_commu.o
    0x00005146   0x0000003c   Code   RO          442    i.rc531c_apdu_rfid  rc531_commu.o
    0x00005182   0x00000010   Code   RO          443    i.rc531c_close_rfid  rc531_commu.o
    0x00005192   0x00000002   PAD
    0x00005194   0x000000b4   Code   RO          445    i.rc531c_coll_cpuB_rfid  rc531_commu.o
    0x00005248   0x00000028   Code   RO          446    i.rc531c_coll_cpua_rfid  rc531_commu.o
    0x00005270   0x00000024   Code   RO          447    i.rc531c_coll_m1_rfid  rc531_commu.o
    0x00005294   0x00000024   Code   RO          448    i.rc531c_coll_m1card_rfid  rc531_commu.o
    0x000052b8   0x00000072   Code   RO          450    i.rc531c_coll_tested_rfid  rc531_commu.o
    0x0000532a   0x00000002   PAD
    0x0000532c   0x000000bc   Code   RO          451    i.rc531c_find_rfid_card  rc531_commu.o
    0x000053e8   0x00000030   Code   RO          452    i.rc531c_halt_m1_rfid  rc531_commu.o
    0x00005418   0x00000028   Code   RO          454    i.rc531c_m1pwd_rfid  rc531_commu.o
    0x00005440   0x0000000a   Code   RO          455    i.rc531c_m1read_rfid  rc531_commu.o
    0x0000544a   0x0000000a   Code   RO          456    i.rc531c_m1write_rfid  rc531_commu.o
    0x00005454   0x00000024   Code   RO          457    i.rc531c_move_rfid_card  rc531_commu.o
    0x00005478   0x0000000c   Code   RO          458    i.rc531c_open_rfid  rc531_commu.o
    0x00005484   0x00000056   Code   RO          459    i.rc531c_read_cpucard_id  rc531_commu.o
    0x000054da   0x00000042   Code   RO          460    i.rc531c_read_m1card_id  rc531_commu.o
    0x0000551c   0x00000088   Code   RO          461    i.rc531c_req_cpua_rfid  rc531_commu.o
    0x000055a4   0x00000088   Code   RO          462    i.rc531c_req_m1_rfid  rc531_commu.o
    0x0000562c   0x00000038   Code   RO          464    i.rc531c_select_cpua_rfid  rc531_commu.o
    0x00005664   0x0000004c   Code   RO          465    i.rc531c_select_m1_rfid  rc531_commu.o
    0x000056b0   0x000000ac   Code   RO         2933    i.spi_pn512_configuration  bsp_spi.o
    0x0000575c   0x00000034   Code   RO         2934    i.spi_pn512_readwrite_byte  bsp_spi.o
    0x00005790   0x00000018   Code   RO         2935    i.spi_pn512_set_nss  bsp_spi.o
    0x000057a8   0x00000018   Code   RO         2936    i.spi_pn512_set_rst  bsp_spi.o
    0x000057c0   0x000000a4   Code   RO         2937    i.spi_rc531_configuration  bsp_spi.o
    0x00005864   0x00000034   Code   RO         2938    i.spi_rc531_readwrite_byte  bsp_spi.o
    0x00005898   0x00000018   Code   RO         2939    i.spi_rc531_set_nss  bsp_spi.o
    0x000058b0   0x00000018   Code   RO         2940    i.spi_rc531_set_rst  bsp_spi.o
    0x000058c8   0x00000028   Code   RO         1393    i.u7se32_rc531_interface  cicc_spi.o
    0x000058f0   0x00000024   Code   RO         1394    i.u7se32_rc531_reset  cicc_spi.o
    0x00005914   0x00000038   Code   RO         1396    i.u7se32_spi_read   cicc_spi.o
    0x0000594c   0x00000032   Code   RO         1397    i.u7se32_spi_write  cicc_spi.o
    0x0000597e   0x00000002   PAD
    0x00005980   0x00000048   Code   RO          706    i.write_add         lf125k.o
    0x000059c8   0x0000003c   Code   RO          707    i.write_data        lf125k.o
    0x00005a04   0x00000010   Code   RO          708    i.write_lock        lf125k.o
    0x00005a14   0x00000060   Code   RO          709    i.write_od          lf125k.o
    0x00005a74   0x00003357   Data   RO         1533    .constdata          rfid_firmware.o
    0x00008dcb   0x00000001   PAD
    0x00008dcc   0x00000020   Data   RO         5412    Region$$Table       anon$$obj.o


    Execution Region RW_IRAM1 (Base: 0x20000000, Size: 0x00000f30, Max: 0x00020000, ABSOLUTE, COMPRESSED[0x0000013c])

    Base Addr    Size         Type   Attr      Idx    E Section Name        Object

    0x20000000   0x00000200   Data   RW          351    .data               crc16.o
    0x20000200   0x00000001   Data   RW          371    .data               protocol_port.o
    0x20000201   0x00000001   Data   RW          631    .data               nfc_commu.o
    0x20000202   0x00000008   Data   RW          710    .data               lf125k.o
    0x2000020a   0x00000001   Data   RW          862    .data               cicc_api.o
    0x2000020b   0x00000001   Data   RW          863    .data               cicc_api.o
    0x2000020c   0x00000001   Data   RW          864    .data               cicc_api.o
    0x2000020d   0x00000001   Data   RW          865    .data               cicc_api.o
    0x2000020e   0x00000001   Data   RW          866    .data               cicc_api.o
    0x2000020f   0x00000008   Data   RW          867    .data               cicc_api.o
    0x20000217   0x00000001   Data   RW          868    .data               cicc_api.o
    0x20000218   0x00000003   Data   RW         1024    .data               cicc_func.o
    0x2000021b   0x00000002   Data   RW         1118    .data               cicc_iso14443.o
    0x2000021d   0x00000066   Data   RW         1289    .data               cicc_public.o
    0x20000283   0x00000001   Data   RW         1290    .data               cicc_public.o
    0x20000284   0x00000002   Data   RW         1534    .data               rfid_firmware.o
    0x20000286   0x00000002   PAD
    0x20000288   0x00000004   Data   RW         2734    .data               bsp_systick.o
    0x2000028c   0x00000014   Data   RW         3690    .data               stm32f10x_rcc.o
    0x200002a0   0x00000004   Data   RW         5348    .data               mc_w.l(stdout.o)
    0x200002a4   0x00000004   Data   RW         5355    .data               mc_w.l(mvars.o)
    0x200002a8   0x00000004   Data   RW         5356    .data               mc_w.l(mvars.o)
    0x200002ac   0x00000108   Zero   RW          165    .bss                protocol.o
    0x200003b4   0x0000000a   Zero   RW          630    .bss                nfc_commu.o
    0x200003be   0x00000080   Zero   RW         1023    .bss                cicc_func.o
    0x2000043e   0x00000258   Zero   RW         1117    .bss                cicc_iso14443.o
    0x20000696   0x00000080   Zero   RW         1196    .bss                cicc_mifare1.o
    0x20000716   0x00000002   PAD
    0x20000718   0x00000014   Zero   RW         1288    .bss                cicc_public.o
    0x2000072c   0x00000004   PAD
    0x20000730   0x00000400   Zero   RW         5003    HEAP                startup_stm32f10x_hd.o
    0x20000b30   0x00000400   Zero   RW         5002    STACK               startup_stm32f10x_hd.o


==============================================================================

Image component sizes


      Code (inc. data)   RO Data    RW Data    ZI Data      Debug   Object Name

       236         44          0          0          0       4254   bsp_gpio.o
       176         16          0          0          0       1657   bsp_pwm.o
       536         48          0          0          0       4650   bsp_spi.o
        98         22          0          4          0      44860   bsp_systick.o
       488         46          0          0          0       4737   bsp_usart.o
       676         16          0         14          0      13768   cicc_api.o
      2908        120          0          3        128      12037   cicc_func.o
      1224        114          0          2        600       7522   cicc_iso14443.o
      1298         68          0          0        128       6373   cicc_mifare1.o
        36          0          0        103         20       1822   cicc_public.o
      1480         38          0          0          0       8859   cicc_rc531.o
       182          0          0          0          0       3305   cicc_spi.o
         0          0          0          0          0         32   core_cm3.o
        48          6          0        512          0       1315   crc16.o
      1278         90          0          8          0      10900   lf125k.o
        80         20          0          0          0       6291   main.o
       144         16          0          0          0     215969   misc.o
       158          0          0          0          0     206155   my_inittask.o
       290         30          0          1         10       6082   nfc_commu.o
      1820          0          0          0          0      14630   pn512.o
       822         68          0          0        264      12229   protocol.o
      1266         50          0          1          0       5508   protocol_port.o
      1474        210          0          0          0      15198   rc531_commu.o
       242         10      13143          2          0       3385   rfid_firmware.o
        36          8        304          0       2048        836   startup_stm32f10x_hd.o
        44         10          0          0          0       1176   stm32f10x_exti.o
       186          0          0          0          0      11524   stm32f10x_gpio.o
       370        116          0          0          0     225988   stm32f10x_it.o
       192         28          0         20          0      13450   stm32f10x_rcc.o
        98          0          0          0          0      10938   stm32f10x_spi.o
       338         64          0          0          0      25038   stm32f10x_tim.o
       338          6          0          0          0      12767   stm32f10x_usart.o
       248         24          0          0          0       1737   system_stm32f10x.o

    ----------------------------------------------------------------------
     18858       1288      13480        672       3204     914992   Object Totals
         0          0         32          0          0          0   (incl. Generated)
        48          0          1          2          6          0   (incl. Padding)

    ----------------------------------------------------------------------

      Code (inc. data)   RO Data    RW Data    ZI Data      Debug   Library Member Name

        86          0          0          0          0          0   __dczerorl2.o
         0          0          0          0          0          0   entry.o
         0          0          0          0          0          0   entry10a.o
         0          0          0          0          0          0   entry11a.o
         8          4          0          0          0          0   entry2.o
         4          0          0          0          0          0   entry5.o
         0          0          0          0          0          0   entry7b.o
         0          0          0          0          0          0   entry8b.o
         8          4          0          0          0          0   entry9a.o
        30          0          0          0          0          0   handlers.o
        36          8          0          0          0         68   init.o
         0          0          0          0          0          0   iusefp.o
        30          0          0          0          0         68   llshl.o
        36          0          0          0          0         68   llsshr.o
        32          0          0          0          0         68   llushr.o
       188         20          0          0          0        160   malloc.o
        26          0          0          0          0         80   memcmp.o
        36          0          0          0          0         68   memcpya.o
        36          0          0          0          0        108   memseta.o
         0          0          0          8          0          0   mvars.o
      2226         90          0          0          0        444   printfa.o
         0          0          0          4          0          0   stdout.o
        44          0          0          0          0         80   uidiv.o
        98          0          0          0          0         92   uldiv.o
        48          0          0          0          0         68   cdrcmple.o
       334          0          0          0          0        148   dadd.o
       222          0          0          0          0        100   ddiv.o
       186          0          0          0          0        176   depilogue.o
        48          0          0          0          0         68   dfixul.o
       228          0          0          0          0         96   dmul.o

    ----------------------------------------------------------------------
      3994        126          0         12          0       1960   Library Totals
         4          0          0          0          0          0   (incl. Padding)

    ----------------------------------------------------------------------

      Code (inc. data)   RO Data    RW Data    ZI Data      Debug   Library Name

      2924        126          0         12          0       1304   mc_w.l
      1066          0          0          0          0        656   mf_w.l

    ----------------------------------------------------------------------
      3994        126          0         12          0       1960   Library Totals

    ----------------------------------------------------------------------

==============================================================================


      Code (inc. data)   RO Data    RW Data    ZI Data      Debug   

     22852       1414      13480        684       3204     904392   Grand Totals
     22852       1414      13480        316       3204     904392   ELF Image Totals (compressed)
     22852       1414      13480        316          0          0   ROM Totals

==============================================================================

    Total RO  Size (Code + RO Data)                36332 (  35.48kB)
    Total RW  Size (RW Data + ZI Data)              3888 (   3.80kB)
    Total ROM Size (Code + RO Data + RW Data)      36648 (  35.79kB)

==============================================================================

